
ConFLiCTuino.elf:     file format elf32-avr

Sections:
Idx Name          Size      VMA       LMA       File off  Algn
  0 .data         00000014  00800200  000031a8  0000325c  2**0
                  CONTENTS, ALLOC, LOAD, DATA
  1 .text         000031a8  00000000  00000000  000000b4  2**1
                  CONTENTS, ALLOC, LOAD, READONLY, CODE
  2 .bss          0000019d  00800214  00800214  00003270  2**0
                  ALLOC
  3 .eeprom       0000020c  00810000  00810000  00003270  2**0
                  CONTENTS, ALLOC, LOAD, DATA
  4 .stab         000010bc  00000000  00000000  0000347c  2**2
                  CONTENTS, READONLY, DEBUGGING
  5 .stabstr      000004bf  00000000  00000000  00004538  2**0
                  CONTENTS, READONLY, DEBUGGING
  6 .comment      0000002f  00000000  00000000  000049f7  2**0
                  CONTENTS, READONLY
  7 .debug_aranges 000001f8  00000000  00000000  00004a26  2**0
                  CONTENTS, READONLY, DEBUGGING
  8 .debug_info   0000321b  00000000  00000000  00004c1e  2**0
                  CONTENTS, READONLY, DEBUGGING
  9 .debug_abbrev 00000ced  00000000  00000000  00007e39  2**0
                  CONTENTS, READONLY, DEBUGGING
 10 .debug_line   00002a33  00000000  00000000  00008b26  2**0
                  CONTENTS, READONLY, DEBUGGING
 11 .debug_frame  00000610  00000000  00000000  0000b55c  2**2
                  CONTENTS, READONLY, DEBUGGING
 12 .debug_str    00000af2  00000000  00000000  0000bb6c  2**0
                  CONTENTS, READONLY, DEBUGGING
 13 .debug_loc    0000234e  00000000  00000000  0000c65e  2**0
                  CONTENTS, READONLY, DEBUGGING
 14 .debug_ranges 000001d0  00000000  00000000  0000e9ac  2**0
                  CONTENTS, READONLY, DEBUGGING

Disassembly of section .text:

00000000 <__vectors>:
       0:	c4 c2       	rjmp	.+1416   	; 0x58a <__ctors_end>
       2:	00 00       	nop
       4:	e2 c2       	rjmp	.+1476   	; 0x5ca <__bad_interrupt>
       6:	00 00       	nop
       8:	e0 c2       	rjmp	.+1472   	; 0x5ca <__bad_interrupt>
       a:	00 00       	nop
       c:	0c 94 12 16 	jmp	0x2c24	; 0x2c24 <__vector_3>
      10:	0c 94 50 16 	jmp	0x2ca0	; 0x2ca0 <__vector_4>
      14:	0c 94 cc 16 	jmp	0x2d98	; 0x2d98 <__vector_5>
      18:	0c 94 8e 16 	jmp	0x2d1c	; 0x2d1c <__vector_6>
      1c:	d6 c2       	rjmp	.+1452   	; 0x5ca <__bad_interrupt>
      1e:	00 00       	nop
      20:	d4 c2       	rjmp	.+1448   	; 0x5ca <__bad_interrupt>
      22:	00 00       	nop
      24:	d2 c2       	rjmp	.+1444   	; 0x5ca <__bad_interrupt>
      26:	00 00       	nop
      28:	d0 c2       	rjmp	.+1440   	; 0x5ca <__bad_interrupt>
      2a:	00 00       	nop
      2c:	ce c2       	rjmp	.+1436   	; 0x5ca <__bad_interrupt>
      2e:	00 00       	nop
      30:	cc c2       	rjmp	.+1432   	; 0x5ca <__bad_interrupt>
      32:	00 00       	nop
      34:	ca c2       	rjmp	.+1428   	; 0x5ca <__bad_interrupt>
      36:	00 00       	nop
      38:	c8 c2       	rjmp	.+1424   	; 0x5ca <__bad_interrupt>
      3a:	00 00       	nop
      3c:	c6 c2       	rjmp	.+1420   	; 0x5ca <__bad_interrupt>
      3e:	00 00       	nop
      40:	c4 c2       	rjmp	.+1416   	; 0x5ca <__bad_interrupt>
      42:	00 00       	nop
      44:	c2 c2       	rjmp	.+1412   	; 0x5ca <__bad_interrupt>
      46:	00 00       	nop
      48:	c0 c2       	rjmp	.+1408   	; 0x5ca <__bad_interrupt>
      4a:	00 00       	nop
      4c:	be c2       	rjmp	.+1404   	; 0x5ca <__bad_interrupt>
      4e:	00 00       	nop
      50:	bc c2       	rjmp	.+1400   	; 0x5ca <__bad_interrupt>
      52:	00 00       	nop
      54:	ba c2       	rjmp	.+1396   	; 0x5ca <__bad_interrupt>
      56:	00 00       	nop
      58:	b8 c2       	rjmp	.+1392   	; 0x5ca <__bad_interrupt>
      5a:	00 00       	nop
      5c:	b6 c2       	rjmp	.+1388   	; 0x5ca <__bad_interrupt>
      5e:	00 00       	nop
      60:	b4 c2       	rjmp	.+1384   	; 0x5ca <__bad_interrupt>
      62:	00 00       	nop
      64:	0c 94 f1 0f 	jmp	0x1fe2	; 0x1fe2 <__vector_25>
      68:	0c 94 ab 0f 	jmp	0x1f56	; 0x1f56 <__vector_26>
      6c:	ae c2       	rjmp	.+1372   	; 0x5ca <__bad_interrupt>
      6e:	00 00       	nop
      70:	ac c2       	rjmp	.+1368   	; 0x5ca <__bad_interrupt>
      72:	00 00       	nop
      74:	aa c2       	rjmp	.+1364   	; 0x5ca <__bad_interrupt>
      76:	00 00       	nop
      78:	a8 c2       	rjmp	.+1360   	; 0x5ca <__bad_interrupt>
      7a:	00 00       	nop
      7c:	a6 c2       	rjmp	.+1356   	; 0x5ca <__bad_interrupt>
      7e:	00 00       	nop
      80:	0c 94 3f 17 	jmp	0x2e7e	; 0x2e7e <__vector_32>
      84:	a2 c2       	rjmp	.+1348   	; 0x5ca <__bad_interrupt>
      86:	00 00       	nop
      88:	a0 c2       	rjmp	.+1344   	; 0x5ca <__bad_interrupt>
      8a:	00 00       	nop
      8c:	9e c2       	rjmp	.+1340   	; 0x5ca <__bad_interrupt>
      8e:	00 00       	nop
      90:	9c c2       	rjmp	.+1336   	; 0x5ca <__bad_interrupt>
      92:	00 00       	nop
      94:	9a c2       	rjmp	.+1332   	; 0x5ca <__bad_interrupt>
      96:	00 00       	nop
      98:	98 c2       	rjmp	.+1328   	; 0x5ca <__bad_interrupt>
      9a:	00 00       	nop
      9c:	96 c2       	rjmp	.+1324   	; 0x5ca <__bad_interrupt>
      9e:	00 00       	nop
      a0:	94 c2       	rjmp	.+1320   	; 0x5ca <__bad_interrupt>
      a2:	00 00       	nop
      a4:	92 c2       	rjmp	.+1316   	; 0x5ca <__bad_interrupt>
      a6:	00 00       	nop
      a8:	90 c2       	rjmp	.+1312   	; 0x5ca <__bad_interrupt>
      aa:	00 00       	nop
      ac:	8e c2       	rjmp	.+1308   	; 0x5ca <__bad_interrupt>
      ae:	00 00       	nop
      b0:	8c c2       	rjmp	.+1304   	; 0x5ca <__bad_interrupt>
      b2:	00 00       	nop
      b4:	8a c2       	rjmp	.+1300   	; 0x5ca <__bad_interrupt>
      b6:	00 00       	nop
      b8:	0c 94 dc 15 	jmp	0x2bb8	; 0x2bb8 <__vector_46>
      bc:	86 c2       	rjmp	.+1292   	; 0x5ca <__bad_interrupt>
      be:	00 00       	nop
      c0:	84 c2       	rjmp	.+1288   	; 0x5ca <__bad_interrupt>
      c2:	00 00       	nop
      c4:	82 c2       	rjmp	.+1284   	; 0x5ca <__bad_interrupt>
      c6:	00 00       	nop
      c8:	0c 94 0a 17 	jmp	0x2e14	; 0x2e14 <__vector_50>
      cc:	7e c2       	rjmp	.+1276   	; 0x5ca <__bad_interrupt>
      ce:	00 00       	nop
      d0:	7c c2       	rjmp	.+1272   	; 0x5ca <__bad_interrupt>
      d2:	00 00       	nop
      d4:	7a c2       	rjmp	.+1268   	; 0x5ca <__bad_interrupt>
      d6:	00 00       	nop
      d8:	78 c2       	rjmp	.+1264   	; 0x5ca <__bad_interrupt>
      da:	00 00       	nop
      dc:	76 c2       	rjmp	.+1260   	; 0x5ca <__bad_interrupt>
      de:	00 00       	nop
      e0:	74 c2       	rjmp	.+1256   	; 0x5ca <__bad_interrupt>
      e2:	00 00       	nop
      e4:	12 08       	sbc	r1, r2
      e6:	ba 09       	sbc	r27, r10
      e8:	ba 09       	sbc	r27, r10
      ea:	ba 09       	sbc	r27, r10
      ec:	ba 09       	sbc	r27, r10
      ee:	ba 09       	sbc	r27, r10
      f0:	ba 09       	sbc	r27, r10
      f2:	ba 09       	sbc	r27, r10
      f4:	ba 09       	sbc	r27, r10
      f6:	ba 09       	sbc	r27, r10
      f8:	31 08       	sbc	r3, r1
      fa:	4d 08       	sbc	r4, r13
      fc:	69 08       	sbc	r6, r9
      fe:	85 08       	sbc	r8, r5
     100:	ba 09       	sbc	r27, r10
     102:	ba 09       	sbc	r27, r10
     104:	ba 09       	sbc	r27, r10
     106:	ba 09       	sbc	r27, r10
     108:	ba 09       	sbc	r27, r10
     10a:	ba 09       	sbc	r27, r10
     10c:	41 08       	sbc	r4, r1
     10e:	5b 08       	sbc	r5, r11
     110:	77 08       	sbc	r7, r7
     112:	93 08       	sbc	r9, r3
     114:	ba 09       	sbc	r27, r10
     116:	ba 09       	sbc	r27, r10
     118:	ba 09       	sbc	r27, r10
     11a:	ba 09       	sbc	r27, r10
     11c:	ba 09       	sbc	r27, r10
     11e:	25 08       	sbc	r2, r5
     120:	a1 08       	sbc	r10, r1
     122:	ba 09       	sbc	r27, r10
     124:	ba 09       	sbc	r27, r10
     126:	ba 09       	sbc	r27, r10
     128:	ba 09       	sbc	r27, r10
     12a:	ba 09       	sbc	r27, r10
     12c:	ba 09       	sbc	r27, r10
     12e:	ba 09       	sbc	r27, r10
     130:	ba 09       	sbc	r27, r10
     132:	ba 09       	sbc	r27, r10
     134:	ba 09       	sbc	r27, r10
     136:	ba 09       	sbc	r27, r10
     138:	ba 09       	sbc	r27, r10
     13a:	ba 09       	sbc	r27, r10
     13c:	ba 09       	sbc	r27, r10
     13e:	ba 09       	sbc	r27, r10
     140:	ba 09       	sbc	r27, r10
     142:	ba 09       	sbc	r27, r10
     144:	ba 09       	sbc	r27, r10
     146:	ba 09       	sbc	r27, r10
     148:	ae 08       	sbc	r10, r14
     14a:	ba 09       	sbc	r27, r10
     14c:	ba 09       	sbc	r27, r10
     14e:	ba 09       	sbc	r27, r10
     150:	ba 09       	sbc	r27, r10
     152:	ba 09       	sbc	r27, r10
     154:	ba 09       	sbc	r27, r10
     156:	ba 09       	sbc	r27, r10
     158:	ba 09       	sbc	r27, r10
     15a:	ba 09       	sbc	r27, r10
     15c:	ba 09       	sbc	r27, r10
     15e:	ba 09       	sbc	r27, r10
     160:	ba 09       	sbc	r27, r10
     162:	ba 09       	sbc	r27, r10
     164:	ba 09       	sbc	r27, r10
     166:	ba 09       	sbc	r27, r10
     168:	ba 09       	sbc	r27, r10
     16a:	ba 09       	sbc	r27, r10
     16c:	ba 09       	sbc	r27, r10
     16e:	ca 08       	sbc	r12, r10
     170:	f3 08       	sbc	r15, r3
     172:	09 09       	sbc	r16, r9
     174:	41 09       	sbc	r20, r1
     176:	57 09       	sbc	r21, r7
     178:	6d 09       	sbc	r22, r13
     17a:	83 09       	sbc	r24, r3
     17c:	ba 09       	sbc	r27, r10
     17e:	99 09       	sbc	r25, r9
     180:	aa 09       	sbc	r26, r10
     182:	c9 09       	sbc	r28, r9
     184:	7e 04       	cpc	r7, r14
     186:	54 0b       	sbc	r21, r20
     188:	7e 04       	cpc	r7, r14
     18a:	7e 04       	cpc	r7, r14
     18c:	7e 04       	cpc	r7, r14
     18e:	7e 04       	cpc	r7, r14
     190:	7e 04       	cpc	r7, r14
     192:	7e 04       	cpc	r7, r14
     194:	7e 04       	cpc	r7, r14
     196:	7e 04       	cpc	r7, r14
     198:	7f 0b       	sbc	r23, r31
     19a:	bd 0b       	sbc	r27, r29
     19c:	04 0c       	add	r0, r4
     19e:	48 0c       	add	r4, r8
     1a0:	7e 04       	cpc	r7, r14
     1a2:	7e 04       	cpc	r7, r14
     1a4:	7e 04       	cpc	r7, r14
     1a6:	7e 04       	cpc	r7, r14
     1a8:	7e 04       	cpc	r7, r14
     1aa:	7e 04       	cpc	r7, r14
     1ac:	9e 0b       	sbc	r25, r30
     1ae:	e2 0b       	sbc	r30, r18
     1b0:	26 0c       	add	r2, r6
     1b2:	6a 0c       	add	r6, r10
     1b4:	7e 04       	cpc	r7, r14
     1b6:	7e 04       	cpc	r7, r14
     1b8:	7e 04       	cpc	r7, r14
     1ba:	7e 04       	cpc	r7, r14
     1bc:	7e 04       	cpc	r7, r14
     1be:	7e 04       	cpc	r7, r14
     1c0:	8e 0c       	add	r8, r14
     1c2:	b2 0c       	add	r11, r2
     1c4:	bd 0c       	add	r11, r13
     1c6:	7e 04       	cpc	r7, r14
     1c8:	7e 04       	cpc	r7, r14
     1ca:	7e 04       	cpc	r7, r14
     1cc:	7e 04       	cpc	r7, r14
     1ce:	7e 04       	cpc	r7, r14
     1d0:	7e 04       	cpc	r7, r14
     1d2:	7e 04       	cpc	r7, r14
     1d4:	7e 04       	cpc	r7, r14
     1d6:	7e 04       	cpc	r7, r14
     1d8:	7e 04       	cpc	r7, r14
     1da:	7e 04       	cpc	r7, r14
     1dc:	7e 04       	cpc	r7, r14
     1de:	7e 04       	cpc	r7, r14
     1e0:	7e 04       	cpc	r7, r14
     1e2:	7e 04       	cpc	r7, r14
     1e4:	7e 04       	cpc	r7, r14
     1e6:	7e 04       	cpc	r7, r14
     1e8:	e6 0c       	add	r14, r6
     1ea:	7e 04       	cpc	r7, r14
     1ec:	7e 04       	cpc	r7, r14
     1ee:	7e 04       	cpc	r7, r14
     1f0:	7e 04       	cpc	r7, r14
     1f2:	7e 04       	cpc	r7, r14
     1f4:	7e 04       	cpc	r7, r14
     1f6:	7e 04       	cpc	r7, r14
     1f8:	7e 04       	cpc	r7, r14
     1fa:	7e 04       	cpc	r7, r14
     1fc:	7e 04       	cpc	r7, r14
     1fe:	7e 04       	cpc	r7, r14
     200:	7e 04       	cpc	r7, r14
     202:	7e 04       	cpc	r7, r14
     204:	7e 04       	cpc	r7, r14
     206:	7e 04       	cpc	r7, r14
     208:	7e 04       	cpc	r7, r14
     20a:	7e 04       	cpc	r7, r14
     20c:	7e 04       	cpc	r7, r14
     20e:	21 0d       	add	r18, r1
     210:	60 0d       	add	r22, r0
     212:	92 0d       	add	r25, r2
     214:	c3 0d       	add	r28, r3
     216:	f4 0d       	add	r31, r4
     218:	25 0e       	add	r2, r21
     21a:	57 0e       	add	r5, r23
     21c:	7e 04       	cpc	r7, r14
     21e:	89 0e       	add	r8, r25
     220:	97 0e       	add	r9, r23

00000222 <default_alphaDisplay>:
     222:	64 32 0d 0d 00 00 00 00 00 00 00 00 00 00 00 00     d2..............
	...
     242:	00 31 3a 20 c5 01 00 00 52 50 4d 20 20 c6 01 00     .1: ....RPM  ...
     252:	25 32 3a 20 c5 02 00 00 52 50 4d 20 20 c6 02 00     %2: ....RPM  ...
     262:	25 33 3a 20 c5 03 00 00 52 50 4d 20 20 c6 03 00     %3: ....RPM  ...
     272:	25 c0 01 00 00 20 f2 43 20 c0 04 00 00 20 f2 43     %.... .C .... .C
     282:	20 c0 02 00 00 20 f2 43 20 c0 05 00 00 20 f2 43      .... .C .... .C
     292:	20 c0 03 00 00 20 f2 43 20 c0 06 00 00 20 f2 43      .... .C .... .C
     2a2:	20 20 20 20 20 20 20 20 20 20 20 20 20 20 20 20                     
     2b2:	20 20 20 20 20 20 20 20 20 20 20 20 20 20 20 20                     
     2c2:	20 20 20 20 20 20 20 20 20 20 20 20 20 20 20 20                     
     2d2:	20 20 20 20 20 20 20 20 20 20 20 20 20 20 20 20                     
     2e2:	20 20 20 20 20 20 20 20 20 20 20 20 20 20 20 20                     
     2f2:	20 20 20 20 20 20 20 20 20 20 20 20 20 20 20 20                     
     302:	20 20 20 20 20 20 20 20 20 20 20 20 20 20 20 20                     
     312:	20 20 20 20 20 20 20 20 20 20 20 20 20 20 20 20                     
     322:	20 20 20 20 20 20 20 20 20 20 20 20 20 20 20 20                     
     332:	20 20 20 20 20 20 20 20 20 20 20 20 20 20 20 20                     

00000342 <default_pulsePerLiter>:
     342:	a9 00                                               ..

00000344 <default_alert_data>:
     344:	00 00 00 00                                         ....

00000348 <default_led_data>:
     348:	00 64 64 64                                         .ddd

0000034c <default_spare_temperature>:
     34c:	a0 a0 a0 a0 a0 a0 a0 a0                             ........

00000354 <default_channel_data>:
     354:	fa fa fa fa fa fa fa fa fa fa fa fa fa fa fa fa     ................
     364:	fa fa fa fa fa fa fa fa ff ff ff ff ff ff ff ff     ................
     374:	ff ff ff ff ff ff ff ff ff ff ff ff ff ff ff ff     ................
     384:	64 21 06 00 00 0a                                   d!....

0000038a <tempTable>:
     38a:	c7 c7 c7 c7 c7 c7 c7 c7 c7 c7 c7 c7 c7 c7 c7 c7     ................
     39a:	c7 c7 c7 c7 c7 c7 c7 c7 c7 c7 c7 c7 c7 c7 c6 c3     ................
     3aa:	c1 be bc ba b8 b6 b4 b2 b0 ae ad ab a9 a8 a6 a5     ................
     3ba:	a3 a2 a0 9f 9d 9c 9b 9a 98 97 96 95 94 92 91 90     ................
     3ca:	8f 8e 8d 8c 8b 8a 89 88 87 86 85 84 84 83 82 81     ................
     3da:	80 7f 7e 7e 7d 7c 7b 7b 7a 79 78 78 77 76 76 75     ..~~}|{{zyxxwvvu
     3ea:	74 73 73 72 71 71 70 70 6f 6e 6e 6d 6d 6c 6b 6b     tssrqqpponnmmlkk
     3fa:	6a 6a 69 68 68 67 67 66 66 65 65 64 64 63 63 62     jjihhggffeeddccb
     40a:	62 61 61 60 60 5f 5f 5e 5e 5d 5d 5c 5c 5b 5b 5b     baa``__^^]]\\[[[
     41a:	5a 5a 59 59 58 58 58 57 57 56 56 55 55 55 54 54     ZZYYXXXWWVVUUUTT
     42a:	53 53 53 52 52 52 51 51 50 50 50 4f 4f 4f 4e 4e     SSSRRRQQPPPOOONN
     43a:	4d 4d 4d 4c 4c 4c 4b 4b 4b 4a 4a 4a 49 49 49 48     MMMLLLKKKJJJIIIH
     44a:	48 48 47 47 47 46 46 46 45 45 45 44 44 44 43 43     HHGGGFFFEEEDDDCC
     45a:	43 43 42 42 42 41 41 41 40 40 40 40 3f 3f 3f 3e     CCBBBAAA@@@@???>
     46a:	3e 3e 3e 3d 3d 3d 3c 3c 3c 3c 3b 3b 3b 3b 3a 3a     >>>===<<<<;;;;::
     47a:	3a 39 39 39 39 38 38 38 38 37 37 37 37 36 36 36     :999988887777666
     48a:	36 35 35 35 35 34 34 34 34 33 33 33 33 32 32 32     6555544443333222
     49a:	32 31 31 31 31 30 30 30 30 2f 2f 2f 2f 2f 2e 2e     211110000/////..
     4aa:	2e 2e 2d 2d 2d 2d 2c 2c 2c 2c 2c 2b 2b 2b 2b 2a     ..----,,,,,++++*
     4ba:	2a 2a 2a 2a 29 29 29 29 29 28 28 28 28 27 27 27     ****)))))(((('''
     4ca:	27 27 26 26 26 26 26 25 25 25 25 25 24 24 24 24     ''&&&&&%%%%%$$$$
     4da:	23 23 23 23 23 22 22 22 22 22 21 21 21 21 21 20     #####"""""!!!!! 
     4ea:	20 20 20 20 20 1f 1f 1f 1f 1f 1e 1e 1e 1e 1e 1d          ...........
     4fa:	1d 1d 1d 1d 1c 1c 1c 1c 1c 1b 1b 1b 1b 1b 1b 1a     ................
     50a:	1a 1a 1a 1a 19 19 19 19 19 19 18 18 18 18 18 17     ................
     51a:	17 17 17 17 17 16 16 16 16 16 15 15 15 15 15 15     ................
     52a:	14 14 14 14 14 13 13 13 13 13 13 12 12 12 12 12     ................
     53a:	12 11 11 11 11 11 11 10 10 10 10 10 0f 0f 0f 0f     ................
     54a:	0f 0f 0e 0e 0e 0e 0e 0e 0d 0d 0d 0d 0d 0d 0c 0c     ................
     55a:	0c 0c 0c 0c 0b 0b 0b 0b 0b 0b 0a 0a 0a 0a 0a 0a     ................
     56a:	09 09 09 09 09 09 08 08 08 08 08 08 07 07 07 07     ................
     57a:	07 07 06 06 06 06 06 06 05 05 05 05 05 05 05 04     ................

0000058a <__ctors_end>:
     58a:	11 24       	eor	r1, r1
     58c:	1f be       	out	0x3f, r1	; 63
     58e:	cf ef       	ldi	r28, 0xFF	; 255
     590:	d1 e2       	ldi	r29, 0x21	; 33
     592:	de bf       	out	0x3e, r29	; 62
     594:	cd bf       	out	0x3d, r28	; 61
     596:	00 e0       	ldi	r16, 0x00	; 0
     598:	0c bf       	out	0x3c, r16	; 60

0000059a <__do_copy_data>:
     59a:	12 e0       	ldi	r17, 0x02	; 2
     59c:	a0 e0       	ldi	r26, 0x00	; 0
     59e:	b2 e0       	ldi	r27, 0x02	; 2
     5a0:	e8 ea       	ldi	r30, 0xA8	; 168
     5a2:	f1 e3       	ldi	r31, 0x31	; 49
     5a4:	00 e0       	ldi	r16, 0x00	; 0
     5a6:	0b bf       	out	0x3b, r16	; 59
     5a8:	02 c0       	rjmp	.+4      	; 0x5ae <__do_copy_data+0x14>
     5aa:	07 90       	elpm	r0, Z+
     5ac:	0d 92       	st	X+, r0
     5ae:	a4 31       	cpi	r26, 0x14	; 20
     5b0:	b1 07       	cpc	r27, r17
     5b2:	d9 f7       	brne	.-10     	; 0x5aa <__do_copy_data+0x10>

000005b4 <__do_clear_bss>:
     5b4:	23 e0       	ldi	r18, 0x03	; 3
     5b6:	a4 e1       	ldi	r26, 0x14	; 20
     5b8:	b2 e0       	ldi	r27, 0x02	; 2
     5ba:	01 c0       	rjmp	.+2      	; 0x5be <.do_clear_bss_start>

000005bc <.do_clear_bss_loop>:
     5bc:	1d 92       	st	X+, r1

000005be <.do_clear_bss_start>:
     5be:	a1 3b       	cpi	r26, 0xB1	; 177
     5c0:	b2 07       	cpc	r27, r18
     5c2:	e1 f7       	brne	.-8      	; 0x5bc <.do_clear_bss_loop>
     5c4:	03 d0       	rcall	.+6      	; 0x5cc <main>
     5c6:	0c 94 d2 18 	jmp	0x31a4	; 0x31a4 <_exit>

000005ca <__bad_interrupt>:
     5ca:	1a cd       	rjmp	.-1484   	; 0x0 <__vectors>

000005cc <main>:
#include "TempSensor.h"
#include "EEPROM_data.h"


int main(void)
{
     5cc:	cf 93       	push	r28
     5ce:	df 93       	push	r29
     5d0:	cd b7       	in	r28, 0x3d	; 61
     5d2:	de b7       	in	r29, 0x3e	; 62
     5d4:	c3 55       	subi	r28, 0x53	; 83
     5d6:	d1 40       	sbci	r29, 0x01	; 1
     5d8:	0f b6       	in	r0, 0x3f	; 63
     5da:	f8 94       	cli
     5dc:	de bf       	out	0x3e, r29	; 62
     5de:	0f be       	out	0x3f, r0	; 63
     5e0:	cd bf       	out	0x3d, r28	; 61
    port_init();
     5e2:	0e 94 7b 0f 	call	0x1ef6	; 0x1ef6 <port_init>
	serialport_init();
     5e6:	0e 94 74 10 	call	0x20e8	; 0x20e8 <serialport_init>
	timer_init();
     5ea:	0e 94 a3 15 	call	0x2b46	; 0x2b46 <timer_init>
	tempSensor_init();
     5ee:	0e 94 ed 14 	call	0x29da	; 0x29da <tempSensor_init>
	//alpha_init();
	
	// activate interrupts
	sei();
     5f2:	78 94       	sei
	uint16_t pcStatus[4] = {0,0,0,0};	// = {CPU_CLK,CPU%,GPU%,RAM%}
	
	uint16_t pulsePerLiter;
	
	
	if (eeprom_read_word(&eeprom_eepromVersionChecker) != EEPROMVERSION_BITS)			// EEPROM is not OK
     5f4:	8a e0       	ldi	r24, 0x0A	; 10
     5f6:	92 e0       	ldi	r25, 0x02	; 2
     5f8:	0e 94 a6 18 	call	0x314c	; 0x314c <__eerd_word_m2560>
     5fc:	81 30       	cpi	r24, 0x01	; 1
     5fe:	91 40       	sbci	r25, 0x01	; 1
     600:	b9 f4       	brne	.+46     	; 0x630 <main+0x64>
     602:	7e c0       	rjmp	.+252    	; 0x700 <main+0x134>
#include "Timer.h"
#include "TempSensor.h"
#include "EEPROM_data.h"


int main(void)
     604:	f8 01       	movw	r30, r16
     606:	ec 5a       	subi	r30, 0xAC	; 172
     608:	fc 4f       	sbci	r31, 0xFC	; 252
		
		for (j=0;j<NUMBEROFCHANNELS;j++)
		{
			for (i=0;i<sizeof(CHANNELDATA);i++)
			{
				eeprom_write_byte(((uint8_t *)&eeprom_channel_data[j])+i,pgm_read_byte(((uint8_t *)&default_channel_data)+i));
     60a:	64 91       	lpm	r22, Z
     60c:	c5 01       	movw	r24, r10
     60e:	80 0f       	add	r24, r16
     610:	91 1f       	adc	r25, r17
     612:	0e 94 c1 18 	call	0x3182	; 0x3182 <__eewr_byte_m2560>
     616:	0f 5f       	subi	r16, 0xFF	; 255
     618:	1f 4f       	sbci	r17, 0xFF	; 255
		
		// serialport_printf("#EEPROM FAILED, START TO OVERWRITE IT!#\r");
		
		for (j=0;j<NUMBEROFCHANNELS;j++)
		{
			for (i=0;i<sizeof(CHANNELDATA);i++)
     61a:	06 33       	cpi	r16, 0x36	; 54
     61c:	11 05       	cpc	r17, r1
     61e:	91 f7       	brne	.-28     	; 0x604 <main+0x38>
     620:	3f ef       	ldi	r19, 0xFF	; 255
     622:	e3 1a       	sub	r14, r19
     624:	f3 0a       	sbc	r15, r19
	if (eeprom_read_word(&eeprom_eepromVersionChecker) != EEPROMVERSION_BITS)			// EEPROM is not OK
	{		
		
		// serialport_printf("#EEPROM FAILED, START TO OVERWRITE IT!#\r");
		
		for (j=0;j<NUMBEROFCHANNELS;j++)
     626:	44 e0       	ldi	r20, 0x04	; 4
     628:	e4 16       	cp	r14, r20
     62a:	f1 04       	cpc	r15, r1
     62c:	49 f4       	brne	.+18     	; 0x640 <main+0x74>
     62e:	17 c0       	rjmp	.+46     	; 0x65e <main+0x92>
	uint16_t pcStatus[4] = {0,0,0,0};	// = {CPU_CLK,CPU%,GPU%,RAM%}
	
	uint16_t pulsePerLiter;
	
	
	if (eeprom_read_word(&eeprom_eepromVersionChecker) != EEPROMVERSION_BITS)			// EEPROM is not OK
     630:	e1 2c       	mov	r14, r1
     632:	f1 2c       	mov	r15, r1
#include "TempSensor.h"
#include "EEPROM_data.h"


int main(void)
{
     634:	c1 2c       	mov	r12, r1
     636:	d1 2c       	mov	r13, r1
		
		for (j=0;j<NUMBEROFCHANNELS;j++)
		{
			for (i=0;i<sizeof(CHANNELDATA);i++)
			{
				eeprom_write_byte(((uint8_t *)&eeprom_channel_data[j])+i,pgm_read_byte(((uint8_t *)&default_channel_data)+i));
     638:	0f 2e       	mov	r0, r31
     63a:	f6 e3       	ldi	r31, 0x36	; 54
     63c:	9f 2e       	mov	r9, r31
     63e:	f0 2d       	mov	r31, r0
#include "TempSensor.h"
#include "EEPROM_data.h"


int main(void)
{
     640:	86 01       	movw	r16, r12
		
		for (j=0;j<NUMBEROFCHANNELS;j++)
		{
			for (i=0;i<sizeof(CHANNELDATA);i++)
			{
				eeprom_write_byte(((uint8_t *)&eeprom_channel_data[j])+i,pgm_read_byte(((uint8_t *)&default_channel_data)+i));
     642:	9e 9c       	mul	r9, r14
     644:	c0 01       	movw	r24, r0
     646:	9f 9c       	mul	r9, r15
     648:	90 0d       	add	r25, r0
     64a:	11 24       	eor	r1, r1
     64c:	0f 2e       	mov	r0, r31
     64e:	f2 e3       	ldi	r31, 0x32	; 50
     650:	af 2e       	mov	r10, r31
     652:	f1 e0       	ldi	r31, 0x01	; 1
     654:	bf 2e       	mov	r11, r31
     656:	f0 2d       	mov	r31, r0
     658:	a8 0e       	add	r10, r24
     65a:	b9 1e       	adc	r11, r25
     65c:	d3 cf       	rjmp	.-90     	; 0x604 <main+0x38>
	if (eeprom_read_word(&eeprom_eepromVersionChecker) != EEPROMVERSION_BITS)			// EEPROM is not OK
	{		
		
		// serialport_printf("#EEPROM FAILED, START TO OVERWRITE IT!#\r");
		
		for (j=0;j<NUMBEROFCHANNELS;j++)
     65e:	00 e0       	ldi	r16, 0x00	; 0
     660:	10 e0       	ldi	r17, 0x00	; 0
		
		// serialport_printf("#CHANNELS COMPLETE#\r");
				
		for (i=0;i<8;i++)
		{
			eeprom_write_byte((&eeprom_spare_temperature[i]),pgm_read_byte(&default_spare_temperature[i]));
     662:	f8 01       	movw	r30, r16
     664:	e4 5b       	subi	r30, 0xB4	; 180
     666:	fc 4f       	sbci	r31, 0xFC	; 252
     668:	64 91       	lpm	r22, Z
     66a:	c8 01       	movw	r24, r16
     66c:	86 5d       	subi	r24, 0xD6	; 214
     66e:	9e 4f       	sbci	r25, 0xFE	; 254
     670:	0e 94 c1 18 	call	0x3182	; 0x3182 <__eewr_byte_m2560>
     674:	0f 5f       	subi	r16, 0xFF	; 255
     676:	1f 4f       	sbci	r17, 0xFF	; 255
			}			
		}
		
		// serialport_printf("#CHANNELS COMPLETE#\r");
				
		for (i=0;i<8;i++)
     678:	08 30       	cpi	r16, 0x08	; 8
     67a:	11 05       	cpc	r17, r1
     67c:	91 f7       	brne	.-28     	; 0x662 <main+0x96>
     67e:	00 e0       	ldi	r16, 0x00	; 0
     680:	10 e0       	ldi	r17, 0x00	; 0
#include "Timer.h"
#include "TempSensor.h"
#include "EEPROM_data.h"


int main(void)
     682:	f8 01       	movw	r30, r16
     684:	e8 5b       	subi	r30, 0xB8	; 184
     686:	fc 4f       	sbci	r31, 0xFC	; 252
		
		// serialport_printf("#SPARE TEMPERATURES COMPLETE#\r");
		
		for (i=0;i<sizeof(LEDDATA);i++)
		{
			eeprom_write_byte(((uint8_t *)&eeprom_led_data)+i,pgm_read_byte(((uint8_t *)&default_led_data)+i));
     688:	64 91       	lpm	r22, Z
     68a:	c8 01       	movw	r24, r16
     68c:	8a 5d       	subi	r24, 0xDA	; 218
     68e:	9e 4f       	sbci	r25, 0xFE	; 254
     690:	0e 94 c1 18 	call	0x3182	; 0x3182 <__eewr_byte_m2560>
     694:	0f 5f       	subi	r16, 0xFF	; 255
     696:	1f 4f       	sbci	r17, 0xFF	; 255
			eeprom_write_byte((&eeprom_spare_temperature[i]),pgm_read_byte(&default_spare_temperature[i]));
		}
		
		// serialport_printf("#SPARE TEMPERATURES COMPLETE#\r");
		
		for (i=0;i<sizeof(LEDDATA);i++)
     698:	04 30       	cpi	r16, 0x04	; 4
     69a:	11 05       	cpc	r17, r1
     69c:	91 f7       	brne	.-28     	; 0x682 <main+0xb6>
     69e:	00 e0       	ldi	r16, 0x00	; 0
     6a0:	10 e0       	ldi	r17, 0x00	; 0
#include "Timer.h"
#include "TempSensor.h"
#include "EEPROM_data.h"


int main(void)
     6a2:	f8 01       	movw	r30, r16
     6a4:	ec 5b       	subi	r30, 0xBC	; 188
     6a6:	fc 4f       	sbci	r31, 0xFC	; 252
		
		// serialport_printf("#LED COMPLETE#\r");
		
		for (i=0;i<sizeof(ALERTDATA);i++)
		{
			eeprom_write_byte(((uint8_t *)&eeprom_alert_data)+i,pgm_read_byte(((uint8_t *)&default_alert_data)+i));
     6a8:	64 91       	lpm	r22, Z
     6aa:	c8 01       	movw	r24, r16
     6ac:	8e 5d       	subi	r24, 0xDE	; 222
     6ae:	9e 4f       	sbci	r25, 0xFE	; 254
     6b0:	0e 94 c1 18 	call	0x3182	; 0x3182 <__eewr_byte_m2560>
     6b4:	0f 5f       	subi	r16, 0xFF	; 255
     6b6:	1f 4f       	sbci	r17, 0xFF	; 255
			eeprom_write_byte(((uint8_t *)&eeprom_led_data)+i,pgm_read_byte(((uint8_t *)&default_led_data)+i));
		}
		
		// serialport_printf("#LED COMPLETE#\r");
		
		for (i=0;i<sizeof(ALERTDATA);i++)
     6b8:	04 30       	cpi	r16, 0x04	; 4
     6ba:	11 05       	cpc	r17, r1
     6bc:	91 f7       	brne	.-28     	; 0x6a2 <main+0xd6>
			eeprom_write_byte(((uint8_t *)&eeprom_alert_data)+i,pgm_read_byte(((uint8_t *)&default_alert_data)+i));
		}
		
		// serialport_printf("#ALERT COMPLETE#\r");
		
		eeprom_write_word(&eeprom_pulsePerLiter,pgm_read_word(&default_pulsePerLiter));
     6be:	e2 e4       	ldi	r30, 0x42	; 66
     6c0:	f3 e0       	ldi	r31, 0x03	; 3
     6c2:	85 91       	lpm	r24, Z+
     6c4:	94 91       	lpm	r25, Z
     6c6:	68 2f       	mov	r22, r24
     6c8:	79 2f       	mov	r23, r25
     6ca:	80 e2       	ldi	r24, 0x20	; 32
     6cc:	91 e0       	ldi	r25, 0x01	; 1
     6ce:	0e 94 cf 18 	call	0x319e	; 0x319e <__eewr_word_m2560>
		
		// serialport_printf("#PULSEPERLITER COMPLETE#\r");
		
		for (k=0;k<sizeof(ALPHANUMERIC);k++)
     6d2:	00 e0       	ldi	r16, 0x00	; 0
     6d4:	10 e0       	ldi	r17, 0x00	; 0
#include "Timer.h"
#include "TempSensor.h"
#include "EEPROM_data.h"


int main(void)
     6d6:	f8 01       	movw	r30, r16
     6d8:	ee 5d       	subi	r30, 0xDE	; 222
     6da:	fd 4f       	sbci	r31, 0xFD	; 253
		
		// serialport_printf("#PULSEPERLITER COMPLETE#\r");
		
		for (k=0;k<sizeof(ALPHANUMERIC);k++)
		{
			eeprom_write_byte(((uint8_t *)&eeprom_alphaDisplay)+k,pgm_read_byte(((uint8_t *)&default_alphaDisplay)+k));
     6dc:	64 91       	lpm	r22, Z
     6de:	c8 01       	movw	r24, r16
     6e0:	80 50       	subi	r24, 0x00	; 0
     6e2:	90 40       	sbci	r25, 0x00	; 0
     6e4:	0e 94 c1 18 	call	0x3182	; 0x3182 <__eewr_byte_m2560>
		
		eeprom_write_word(&eeprom_pulsePerLiter,pgm_read_word(&default_pulsePerLiter));
		
		// serialport_printf("#PULSEPERLITER COMPLETE#\r");
		
		for (k=0;k<sizeof(ALPHANUMERIC);k++)
     6e8:	0f 5f       	subi	r16, 0xFF	; 255
     6ea:	1f 4f       	sbci	r17, 0xFF	; 255
     6ec:	00 32       	cpi	r16, 0x20	; 32
     6ee:	81 e0       	ldi	r24, 0x01	; 1
     6f0:	18 07       	cpc	r17, r24
     6f2:	89 f7       	brne	.-30     	; 0x6d6 <main+0x10a>
			eeprom_write_byte(((uint8_t *)&eeprom_alphaDisplay)+k,pgm_read_byte(((uint8_t *)&default_alphaDisplay)+k));
		}
		
		// serialport_printf("\r#DISPLAY COMPLETE#\r");
		
		eeprom_write_word(&eeprom_eepromVersionChecker,EEPROMVERSION_BITS);
     6f4:	61 e0       	ldi	r22, 0x01	; 1
     6f6:	71 e0       	ldi	r23, 0x01	; 1
     6f8:	8a e0       	ldi	r24, 0x0A	; 10
     6fa:	92 e0       	ldi	r25, 0x02	; 2
     6fc:	0e 94 cf 18 	call	0x319e	; 0x319e <__eewr_word_m2560>
		// serialport_printf("#EEPROMVERSION COMPLETE#\r");
		// serialport_printf("#EEPROM OVERRIDE COMPLETE, START#\r");
	}
	
	
	pulsePerLiter = eeprom_read_word(&eeprom_pulsePerLiter);	// impulses per liter of the flow meter
     700:	80 e2       	ldi	r24, 0x20	; 32
     702:	91 e0       	ldi	r25, 0x01	; 1
     704:	0e 94 a6 18 	call	0x314c	; 0x314c <__eerd_word_m2560>
     708:	c0 5b       	subi	r28, 0xB0	; 176
     70a:	de 4f       	sbci	r29, 0xFE	; 254
     70c:	99 83       	std	Y+1, r25	; 0x01
     70e:	88 83       	st	Y, r24
     710:	c0 55       	subi	r28, 0x50	; 80
     712:	d1 40       	sbci	r29, 0x01	; 1
	timer_setImpulsePerLiter(pulsePerLiter);							// inform the timer
     714:	0e 94 22 18 	call	0x3044	; 0x3044 <timer_setImpulsePerLiter>
	//uint8_t switch2_ctr = 0;
	//
	//uint8_t buzzerEnable = 1;
	
	// read the EEPROM
	eeprom_read_block((void*)channel_data, (const void*)eeprom_channel_data, (NUMBEROFCHANNELS*sizeof(CHANNELDATA)));
     718:	48 ed       	ldi	r20, 0xD8	; 216
     71a:	50 e0       	ldi	r21, 0x00	; 0
     71c:	62 e3       	ldi	r22, 0x32	; 50
     71e:	71 e0       	ldi	r23, 0x01	; 1
     720:	ce 01       	movw	r24, r28
     722:	86 96       	adiw	r24, 0x26	; 38
     724:	0e 94 96 18 	call	0x312c	; 0x312c <__eerd_block_m2560>
	eeprom_read_block((void*)spare_temperature, (const void*)eeprom_spare_temperature, 8);
     728:	48 e0       	ldi	r20, 0x08	; 8
     72a:	50 e0       	ldi	r21, 0x00	; 0
     72c:	6a e2       	ldi	r22, 0x2A	; 42
     72e:	71 e0       	ldi	r23, 0x01	; 1
     730:	ce 01       	movw	r24, r28
     732:	4e 96       	adiw	r24, 0x1e	; 30
     734:	0e 94 96 18 	call	0x312c	; 0x312c <__eerd_block_m2560>
	eeprom_read_block((void*)&led_data, (const void*)&eeprom_led_data, sizeof(LEDDATA));
     738:	44 e0       	ldi	r20, 0x04	; 4
     73a:	50 e0       	ldi	r21, 0x00	; 0
     73c:	66 e2       	ldi	r22, 0x26	; 38
     73e:	71 e0       	ldi	r23, 0x01	; 1
     740:	ce 01       	movw	r24, r28
     742:	8e 5e       	subi	r24, 0xEE	; 238
     744:	9e 4f       	sbci	r25, 0xFE	; 254
     746:	0e 94 96 18 	call	0x312c	; 0x312c <__eerd_block_m2560>
	eeprom_read_block((void*)&alert_data, (const void*)&eeprom_alert_data, sizeof(ALERTDATA));
     74a:	44 e0       	ldi	r20, 0x04	; 4
     74c:	50 e0       	ldi	r21, 0x00	; 0
     74e:	62 e2       	ldi	r22, 0x22	; 34
     750:	71 e0       	ldi	r23, 0x01	; 1
     752:	ce 01       	movw	r24, r28
     754:	8a 5e       	subi	r24, 0xEA	; 234
     756:	9e 4f       	sbci	r25, 0xFE	; 254
     758:	0e 94 96 18 	call	0x312c	; 0x312c <__eerd_block_m2560>
     75c:	a6 e2       	ldi	r26, 0x26	; 38
     75e:	b0 e0       	ldi	r27, 0x00	; 0
     760:	ac 0f       	add	r26, r28
     762:	bd 1f       	adc	r27, r29
     764:	d2 96       	adiw	r26, 0x32	; 50
     766:	ce 5c       	subi	r28, 0xCE	; 206
     768:	de 4f       	sbci	r29, 0xFE	; 254
     76a:	b9 83       	std	Y+1, r27	; 0x01
     76c:	a8 83       	st	Y, r26
     76e:	c2 53       	subi	r28, 0x32	; 50
     770:	d1 40       	sbci	r29, 0x01	; 1
#include "Timer.h"
#include "TempSensor.h"
#include "EEPROM_data.h"


int main(void)
     772:	ce 01       	movw	r24, r28
     774:	80 5d       	subi	r24, 0xD0	; 208
     776:	9e 4f       	sbci	r25, 0xFE	; 254
     778:	de 01       	movw	r26, r28
     77a:	ae 5f       	subi	r26, 0xFE	; 254
     77c:	be 4f       	sbci	r27, 0xFE	; 254
     77e:	ce 5c       	subi	r28, 0xCE	; 206
     780:	de 4f       	sbci	r29, 0xFE	; 254
     782:	e8 81       	ld	r30, Y
     784:	f9 81       	ldd	r31, Y+1	; 0x01
     786:	c2 53       	subi	r28, 0x32	; 50
     788:	d1 40       	sbci	r29, 0x01	; 1
	
	
	for (i=0;i<NUMBEROFCHANNELS;i++)
	{
		channel_status[i].startupTimer = channel_data[i].startupTime;
		channel_status[i].status = startup;		
     78a:	41 e0       	ldi	r20, 0x01	; 1
     78c:	bf 01       	movw	r22, r30
#include "Timer.h"
#include "TempSensor.h"
#include "EEPROM_data.h"


int main(void)
     78e:	9d 01       	movw	r18, r26
     790:	21 50       	subi	r18, 0x01	; 1
     792:	31 09       	sbc	r19, r1
	//screenCountdown = alphaDisplay.screen[0];	
	
	
	for (i=0;i<NUMBEROFCHANNELS;i++)
	{
		channel_status[i].startupTimer = channel_data[i].startupTime;
     794:	fb 01       	movw	r30, r22
     796:	50 81       	ld	r21, Z
     798:	f9 01       	movw	r30, r18
     79a:	50 83       	st	Z, r21
		channel_status[i].status = startup;		
     79c:	4c 93       	st	X, r20
     79e:	6a 5c       	subi	r22, 0xCA	; 202
     7a0:	7f 4f       	sbci	r23, 0xFF	; 255
     7a2:	15 96       	adiw	r26, 0x05	; 5
	//timer_setPwm(BACKLIGHT,alphaDisplay.backlight);
	//alpha_setContrast(alphaDisplay.contrast);
	//screenCountdown = alphaDisplay.screen[0];	
	
	
	for (i=0;i<NUMBEROFCHANNELS;i++)
     7a4:	68 17       	cp	r22, r24
     7a6:	79 07       	cpc	r23, r25
     7a8:	91 f7       	brne	.-28     	; 0x78e <main+0x1c2>
     7aa:	c2 5d       	subi	r28, 0xD2	; 210
     7ac:	de 4f       	sbci	r29, 0xFE	; 254
     7ae:	19 82       	std	Y+1, r1	; 0x01
     7b0:	18 82       	st	Y, r1
     7b2:	ce 52       	subi	r28, 0x2E	; 46
     7b4:	d1 40       	sbci	r29, 0x01	; 1
     7b6:	f5 e0       	ldi	r31, 0x05	; 5
     7b8:	c3 5d       	subi	r28, 0xD3	; 211
     7ba:	de 4f       	sbci	r29, 0xFE	; 254
     7bc:	f8 83       	st	Y, r31
     7be:	cd 52       	subi	r28, 0x2D	; 45
     7c0:	d1 40       	sbci	r29, 0x01	; 1
     7c2:	c4 5d       	subi	r28, 0xD4	; 212
     7c4:	de 4f       	sbci	r29, 0xFE	; 254
     7c6:	18 82       	st	Y, r1
     7c8:	cc 52       	subi	r28, 0x2C	; 44
     7ca:	d1 40       	sbci	r29, 0x01	; 1
#include "Timer.h"
#include "TempSensor.h"
#include "EEPROM_data.h"


int main(void)
     7cc:	9e 01       	movw	r18, r28
     7ce:	2a 5d       	subi	r18, 0xDA	; 218
     7d0:	3f 4f       	sbci	r19, 0xFF	; 255
     7d2:	c6 5e       	subi	r28, 0xE6	; 230
     7d4:	de 4f       	sbci	r29, 0xFE	; 254
     7d6:	39 83       	std	Y+1, r19	; 0x01
     7d8:	28 83       	st	Y, r18
     7da:	ca 51       	subi	r28, 0x1A	; 26
     7dc:	d1 40       	sbci	r29, 0x01	; 1
     7de:	8e ef       	ldi	r24, 0xFE	; 254
     7e0:	90 e0       	ldi	r25, 0x00	; 0
     7e2:	8c 0f       	add	r24, r28
     7e4:	9d 1f       	adc	r25, r29
     7e6:	03 96       	adiw	r24, 0x03	; 3
     7e8:	cc 5c       	subi	r28, 0xCC	; 204
     7ea:	de 4f       	sbci	r29, 0xFE	; 254
     7ec:	99 83       	std	Y+1, r25	; 0x01
     7ee:	88 83       	st	Y, r24
     7f0:	c4 53       	subi	r28, 0x34	; 52
     7f2:	d1 40       	sbci	r29, 0x01	; 1
     7f4:	ae ef       	ldi	r26, 0xFE	; 254
     7f6:	b0 e0       	ldi	r27, 0x00	; 0
     7f8:	ac 0f       	add	r26, r28
     7fa:	bd 1f       	adc	r27, r29
     7fc:	12 96       	adiw	r26, 0x02	; 2
     7fe:	ca 5c       	subi	r28, 0xCA	; 202
     800:	de 4f       	sbci	r29, 0xFE	; 254
     802:	b9 83       	std	Y+1, r27	; 0x01
     804:	a8 83       	st	Y, r26
     806:	c6 53       	subi	r28, 0x36	; 54
     808:	d1 40       	sbci	r29, 0x01	; 1
     80a:	f9 01       	movw	r30, r18
     80c:	f5 96       	adiw	r30, 0x35	; 53
     80e:	c8 5c       	subi	r28, 0xC8	; 200
     810:	de 4f       	sbci	r29, 0xFE	; 254
     812:	f9 83       	std	Y+1, r31	; 0x01
     814:	e8 83       	st	Y, r30
     816:	c8 53       	subi	r28, 0x38	; 56
     818:	d1 40       	sbci	r29, 0x01	; 1
     81a:	26 e2       	ldi	r18, 0x26	; 38
     81c:	30 e0       	ldi	r19, 0x00	; 0
     81e:	2c 0f       	add	r18, r28
     820:	3d 1f       	adc	r19, r29
     822:	20 5d       	subi	r18, 0xD0	; 208
     824:	3f 4f       	sbci	r19, 0xFF	; 255
     826:	c6 5c       	subi	r28, 0xC6	; 198
     828:	de 4f       	sbci	r29, 0xFE	; 254
     82a:	39 83       	std	Y+1, r19	; 0x01
     82c:	28 83       	st	Y, r18
     82e:	ca 53       	subi	r28, 0x3A	; 58
     830:	d1 40       	sbci	r29, 0x01	; 1
     832:	86 e2       	ldi	r24, 0x26	; 38
     834:	90 e0       	ldi	r25, 0x00	; 0
     836:	8c 0f       	add	r24, r28
     838:	9d 1f       	adc	r25, r29
     83a:	c4 96       	adiw	r24, 0x34	; 52
     83c:	c4 5c       	subi	r28, 0xC4	; 196
     83e:	de 4f       	sbci	r29, 0xFE	; 254
     840:	99 83       	std	Y+1, r25	; 0x01
     842:	88 83       	st	Y, r24
     844:	cc 53       	subi	r28, 0x3C	; 60
     846:	d1 40       	sbci	r29, 0x01	; 1
						}						
					}
					if (temperature[j] > channel_data[i].maxTemp[j])	// a temperature over maximum! o.O
					{
						// over temperature
						if (alert_data.overtempEnable)
     848:	ca 5b       	subi	r28, 0xBA	; 186
     84a:	de 4f       	sbci	r29, 0xFE	; 254
     84c:	88 83       	st	Y, r24
     84e:	c6 54       	subi	r28, 0x46	; 70
     850:	d1 40       	sbci	r29, 0x01	; 1
     852:	c9 5b       	subi	r28, 0xB9	; 185
     854:	de 4f       	sbci	r29, 0xFE	; 254
     856:	98 83       	st	Y, r25
     858:	c7 54       	subi	r28, 0x47	; 71
     85a:	d1 40       	sbci	r29, 0x01	; 1
     85c:	c8 5b       	subi	r28, 0xB8	; 184
     85e:	de 4f       	sbci	r29, 0xFE	; 254
     860:	28 83       	st	Y, r18
     862:	c8 54       	subi	r28, 0x48	; 72
     864:	d1 40       	sbci	r29, 0x01	; 1
     866:	c7 5b       	subi	r28, 0xB7	; 183
     868:	de 4f       	sbci	r29, 0xFE	; 254
     86a:	38 83       	st	Y, r19
     86c:	c9 54       	subi	r28, 0x49	; 73
     86e:	d1 40       	sbci	r29, 0x01	; 1
     870:	c6 5b       	subi	r28, 0xB6	; 182
     872:	de 4f       	sbci	r29, 0xFE	; 254
     874:	e8 83       	st	Y, r30
     876:	ca 54       	subi	r28, 0x4A	; 74
     878:	d1 40       	sbci	r29, 0x01	; 1
     87a:	c5 5b       	subi	r28, 0xB5	; 181
     87c:	de 4f       	sbci	r29, 0xFE	; 254
     87e:	f8 83       	st	Y, r31
     880:	cb 54       	subi	r28, 0x4B	; 75
     882:	d1 40       	sbci	r29, 0x01	; 1
     884:	c4 5b       	subi	r28, 0xB4	; 180
     886:	de 4f       	sbci	r29, 0xFE	; 254
     888:	a8 83       	st	Y, r26
     88a:	cc 54       	subi	r28, 0x4C	; 76
     88c:	d1 40       	sbci	r29, 0x01	; 1
     88e:	c3 5b       	subi	r28, 0xB3	; 179
     890:	de 4f       	sbci	r29, 0xFE	; 254
     892:	b8 83       	st	Y, r27
     894:	cd 54       	subi	r28, 0x4D	; 77
     896:	d1 40       	sbci	r29, 0x01	; 1
     898:	cc 5c       	subi	r28, 0xCC	; 204
     89a:	de 4f       	sbci	r29, 0xFE	; 254
     89c:	98 81       	ld	r25, Y
     89e:	c4 53       	subi	r28, 0x34	; 52
     8a0:	d1 40       	sbci	r29, 0x01	; 1
     8a2:	c2 5b       	subi	r28, 0xB2	; 178
     8a4:	de 4f       	sbci	r29, 0xFE	; 254
     8a6:	98 83       	st	Y, r25
     8a8:	ce 54       	subi	r28, 0x4E	; 78
     8aa:	d1 40       	sbci	r29, 0x01	; 1
     8ac:	cb 5c       	subi	r28, 0xCB	; 203
     8ae:	de 4f       	sbci	r29, 0xFE	; 254
     8b0:	a8 81       	ld	r26, Y
     8b2:	c5 53       	subi	r28, 0x35	; 53
     8b4:	d1 40       	sbci	r29, 0x01	; 1
     8b6:	c1 5b       	subi	r28, 0xB1	; 177
     8b8:	de 4f       	sbci	r29, 0xFE	; 254
     8ba:	a8 83       	st	Y, r26
     8bc:	cf 54       	subi	r28, 0x4F	; 79
     8be:	d1 40       	sbci	r29, 0x01	; 1
     8c0:	fe 01       	movw	r30, r28
     8c2:	36 96       	adiw	r30, 0x06	; 6
     8c4:	c4 5e       	subi	r28, 0xE4	; 228
     8c6:	de 4f       	sbci	r29, 0xFE	; 254
     8c8:	f9 83       	std	Y+1, r31	; 0x01
     8ca:	e8 83       	st	Y, r30
     8cc:	cc 51       	subi	r28, 0x1C	; 28
     8ce:	d1 40       	sbci	r29, 0x01	; 1
     8d0:	c6 5d       	subi	r28, 0xD6	; 214
     8d2:	de 4f       	sbci	r29, 0xFE	; 254
     8d4:	e8 83       	st	Y, r30
     8d6:	ca 52       	subi	r28, 0x2A	; 42
     8d8:	d1 40       	sbci	r29, 0x01	; 1
     8da:	c5 5d       	subi	r28, 0xD5	; 213
     8dc:	de 4f       	sbci	r29, 0xFE	; 254
     8de:	f8 83       	st	Y, r31
     8e0:	cb 52       	subi	r28, 0x2B	; 43
     8e2:	d1 40       	sbci	r29, 0x01	; 1
     8e4:	22 e1       	ldi	r18, 0x12	; 18
     8e6:	31 e0       	ldi	r19, 0x01	; 1
     8e8:	2c 0f       	add	r18, r28
     8ea:	3d 1f       	adc	r19, r29
     8ec:	2f 5f       	subi	r18, 0xFF	; 255
     8ee:	3f 4f       	sbci	r19, 0xFF	; 255
     8f0:	ce 5a       	subi	r28, 0xAE	; 174
     8f2:	de 4f       	sbci	r29, 0xFE	; 254
     8f4:	39 83       	std	Y+1, r19	; 0x01
     8f6:	28 83       	st	Y, r18
     8f8:	c2 55       	subi	r28, 0x52	; 82
     8fa:	d1 40       	sbci	r29, 0x01	; 1
		
	while(1)						// main loop
    {
        		
		// use spare temperatures if aida temperatures are to old
		if (spare_temperatureTimer > 4)
     8fc:	c3 5d       	subi	r28, 0xD3	; 211
     8fe:	de 4f       	sbci	r29, 0xFE	; 254
     900:	38 81       	ld	r19, Y
     902:	cd 52       	subi	r28, 0x2D	; 45
     904:	d1 40       	sbci	r29, 0x01	; 1
     906:	35 30       	cpi	r19, 0x05	; 5
     908:	10 f4       	brcc	.+4      	; 0x90e <main+0x342>
     90a:	0c 94 be 0e 	jmp	0x1d7c	; 0x1d7c <main+0x17b0>
     90e:	fe 01       	movw	r30, r28
     910:	7e 96       	adiw	r30, 0x1e	; 30
     912:	de 01       	movw	r26, r28
     914:	56 96       	adiw	r26, 0x16	; 22
		{
			for (i=0;i<8;i++)
			{
				temperature[i+16] = spare_temperature[i];
     916:	81 91       	ld	r24, Z+
     918:	8d 93       	st	X+, r24
    {
        		
		// use spare temperatures if aida temperatures are to old
		if (spare_temperatureTimer > 4)
		{
			for (i=0;i<8;i++)
     91a:	c6 5e       	subi	r28, 0xE6	; 230
     91c:	de 4f       	sbci	r29, 0xFE	; 254
     91e:	88 81       	ld	r24, Y
     920:	99 81       	ldd	r25, Y+1	; 0x01
     922:	ca 51       	subi	r28, 0x1A	; 26
     924:	d1 40       	sbci	r29, 0x01	; 1
     926:	e8 17       	cp	r30, r24
     928:	f9 07       	cpc	r31, r25
     92a:	a9 f7       	brne	.-22     	; 0x916 <main+0x34a>
     92c:	0c 94 be 0e 	jmp	0x1d7c	; 0x1d7c <main+0x17b0>
#include "Timer.h"
#include "TempSensor.h"
#include "EEPROM_data.h"


int main(void)
     930:	c8 5d       	subi	r28, 0xD8	; 216
     932:	de 4f       	sbci	r29, 0xFE	; 254
     934:	d9 82       	std	Y+1, r13	; 0x01
     936:	c8 82       	st	Y, r12
     938:	c8 52       	subi	r28, 0x28	; 40
     93a:	d1 40       	sbci	r29, 0x01	; 1
     93c:	f6 01       	movw	r30, r12
     93e:	31 97       	sbiw	r30, 0x01	; 1
		
		// calculate the channel power
		for (i=0;i<NUMBEROFCHANNELS;i++)
		{	
					
			if (channel_data[i].automaticMode)		// automatic mode
     940:	80 81       	ld	r24, Z
     942:	88 23       	and	r24, r24
     944:	09 f4       	brne	.+2      	; 0x948 <main+0x37c>
     946:	c6 c0       	rjmp	.+396    	; 0xad4 <main+0x508>
     948:	c6 5d       	subi	r28, 0xD6	; 214
     94a:	de 4f       	sbci	r29, 0xFE	; 254
     94c:	e8 81       	ld	r30, Y
     94e:	ca 52       	subi	r28, 0x2A	; 42
     950:	d1 40       	sbci	r29, 0x01	; 1
     952:	c5 5d       	subi	r28, 0xD5	; 213
     954:	de 4f       	sbci	r29, 0xFE	; 254
     956:	f8 81       	ld	r31, Y
     958:	cb 52       	subi	r28, 0x2B	; 43
     95a:	d1 40       	sbci	r29, 0x01	; 1
#include "Timer.h"
#include "TempSensor.h"
#include "EEPROM_data.h"


int main(void)
     95c:	96 e3       	ldi	r25, 0x36	; 54
     95e:	9a 9d       	mul	r25, r10
     960:	90 01       	movw	r18, r0
     962:	9b 9d       	mul	r25, r11
     964:	30 0d       	add	r19, r0
     966:	11 24       	eor	r1, r1
     968:	06 e2       	ldi	r16, 0x26	; 38
     96a:	10 e0       	ldi	r17, 0x00	; 0
     96c:	0c 0f       	add	r16, r28
     96e:	1d 1f       	adc	r17, r29
     970:	02 0f       	add	r16, r18
     972:	13 1f       	adc	r17, r19
     974:	28 5e       	subi	r18, 0xE8	; 232
     976:	3f 4f       	sbci	r19, 0xFF	; 255
     978:	a6 e2       	ldi	r26, 0x26	; 38
     97a:	b0 e0       	ldi	r27, 0x00	; 0
     97c:	ac 0f       	add	r26, r28
     97e:	bd 1f       	adc	r27, r29
     980:	2a 0f       	add	r18, r26
     982:	3b 1f       	adc	r19, r27
     984:	31 2c       	mov	r3, r1
			{
				uint8_t cooling = 0;			// temporary cooling value
				uint8_t d1, d2;					// temporary variable for calculation
				for (j=0;j<24;j++)
				{
					if ((temperature[j] >= channel_data[i].minTemp[j]) && (temperature[j] <= channel_data[i].maxTemp[j])) // temperature is between min and max
     986:	41 90       	ld	r4, Z+
     988:	d8 01       	movw	r26, r16
     98a:	4d 91       	ld	r20, X+
     98c:	8d 01       	movw	r16, r26
     98e:	44 16       	cp	r4, r20
     990:	a0 f0       	brcs	.+40     	; 0x9ba <main+0x3ee>
     992:	d9 01       	movw	r26, r18
     994:	6c 91       	ld	r22, X
     996:	64 15       	cp	r22, r4
     998:	80 f0       	brcs	.+32     	; 0x9ba <main+0x3ee>
					{
						d1 = 100 / (channel_data[i].maxTemp[j] - channel_data[i].minTemp[j]);	// calculate cooling value
     99a:	50 e0       	ldi	r21, 0x00	; 0
     99c:	70 e0       	ldi	r23, 0x00	; 0
     99e:	64 1b       	sub	r22, r20
     9a0:	75 0b       	sbc	r23, r21
     9a2:	84 e6       	ldi	r24, 0x64	; 100
     9a4:	90 e0       	ldi	r25, 0x00	; 0
     9a6:	0e 94 3b 18 	call	0x3076	; 0x3076 <__divmodhi4>
						d2 = (temperature[j] - channel_data[i].minTemp[j]) * d1;
     9aa:	84 2d       	mov	r24, r4
     9ac:	84 1b       	sub	r24, r20
     9ae:	86 9f       	mul	r24, r22
     9b0:	60 2d       	mov	r22, r0
     9b2:	11 24       	eor	r1, r1
     9b4:	36 16       	cp	r3, r22
     9b6:	08 f4       	brcc	.+2      	; 0x9ba <main+0x3ee>
     9b8:	36 2e       	mov	r3, r22
						if (d2 > cooling)	// save the highest cooling value	
						{
							cooling = d2;
						}						
					}
					if (temperature[j] > channel_data[i].maxTemp[j])	// a temperature over maximum! o.O
     9ba:	d9 01       	movw	r26, r18
     9bc:	8d 91       	ld	r24, X+
     9be:	9d 01       	movw	r18, r26
     9c0:	84 15       	cp	r24, r4
     9c2:	30 f4       	brcc	.+12     	; 0x9d0 <main+0x404>
					{
						// over temperature
						if (alert_data.overtempEnable)
     9c4:	61 10       	cpse	r6, r1
     9c6:	02 c0       	rjmp	.+4      	; 0x9cc <main+0x400>
						{
							alert_status.overtemp = 1;
						}					
						cooling = 100;
     9c8:	37 2c       	mov	r3, r7
     9ca:	02 c0       	rjmp	.+4      	; 0x9d0 <main+0x404>
					if (temperature[j] > channel_data[i].maxTemp[j])	// a temperature over maximum! o.O
					{
						// over temperature
						if (alert_data.overtempEnable)
						{
							alert_status.overtemp = 1;
     9cc:	25 2c       	mov	r2, r5
						}					
						cooling = 100;
     9ce:	37 2c       	mov	r3, r7
					
			if (channel_data[i].automaticMode)		// automatic mode
			{
				uint8_t cooling = 0;			// temporary cooling value
				uint8_t d1, d2;					// temporary variable for calculation
				for (j=0;j<24;j++)
     9d0:	ee 15       	cp	r30, r14
     9d2:	ff 05       	cpc	r31, r15
     9d4:	c1 f6       	brne	.-80     	; 0x986 <main+0x3ba>
#include "Timer.h"
#include "TempSensor.h"
#include "EEPROM_data.h"


int main(void)
     9d6:	f4 01       	movw	r30, r8
						}					
						cooling = 100;
					}				
				}
				
				switch (channel_status[i].status)						// check the status
     9d8:	80 81       	ld	r24, Z
     9da:	81 30       	cpi	r24, 0x01	; 1
     9dc:	09 f4       	brne	.+2      	; 0x9e0 <main+0x414>
     9de:	41 c0       	rjmp	.+130    	; 0xa62 <main+0x496>
     9e0:	20 f0       	brcs	.+8      	; 0x9ea <main+0x41e>
     9e2:	82 30       	cpi	r24, 0x02	; 2
     9e4:	09 f0       	breq	.+2      	; 0x9e8 <main+0x41c>
     9e6:	b9 c0       	rjmp	.+370    	; 0xb5a <main+0x58e>
     9e8:	45 c0       	rjmp	.+138    	; 0xa74 <main+0x4a8>
				{
					case off:		
						channel_status[i].power = 0;					// turn it off
     9ea:	c2 5e       	subi	r28, 0xE2	; 226
     9ec:	de 4f       	sbci	r29, 0xFE	; 254
     9ee:	a8 81       	ld	r26, Y
     9f0:	b9 81       	ldd	r27, Y+1	; 0x01
     9f2:	ce 51       	subi	r28, 0x1E	; 30
     9f4:	d1 40       	sbci	r29, 0x01	; 1
     9f6:	1c 92       	st	X, r1
						if (channel_data[i].stopEnable)					// off allowed
     9f8:	c8 5d       	subi	r28, 0xD8	; 216
     9fa:	de 4f       	sbci	r29, 0xFE	; 254
     9fc:	a8 81       	ld	r26, Y
     9fe:	b9 81       	ldd	r27, Y+1	; 0x01
     a00:	c8 52       	subi	r28, 0x28	; 40
     a02:	d1 40       	sbci	r29, 0x01	; 1
     a04:	8c 91       	ld	r24, X
     a06:	88 23       	and	r24, r24
     a08:	d9 f0       	breq	.+54     	; 0xa40 <main+0x474>
						{
							if (cooling > channel_data[i].threshold)	// if cooling is higher then threshold
     a0a:	cc 5d       	subi	r28, 0xDC	; 220
     a0c:	de 4f       	sbci	r29, 0xFE	; 254
     a0e:	a8 81       	ld	r26, Y
     a10:	b9 81       	ldd	r27, Y+1	; 0x01
     a12:	c4 52       	subi	r28, 0x24	; 36
     a14:	d1 40       	sbci	r29, 0x01	; 1
     a16:	8c 91       	ld	r24, X
     a18:	83 15       	cp	r24, r3
     a1a:	08 f0       	brcs	.+2      	; 0xa1e <main+0x452>
     a1c:	9e c0       	rjmp	.+316    	; 0xb5a <main+0x58e>
							{
								channel_status[i].status = startup;		// start the channel and reset the startup timer
     a1e:	b1 e0       	ldi	r27, 0x01	; 1
     a20:	b0 83       	st	Z, r27
								channel_status[i].startupTimer = channel_data[i].startupTime;
     a22:	ca 5d       	subi	r28, 0xDA	; 218
     a24:	de 4f       	sbci	r29, 0xFE	; 254
     a26:	e8 81       	ld	r30, Y
     a28:	f9 81       	ldd	r31, Y+1	; 0x01
     a2a:	c6 52       	subi	r28, 0x26	; 38
     a2c:	d1 40       	sbci	r29, 0x01	; 1
     a2e:	80 81       	ld	r24, Z
     a30:	ce 5d       	subi	r28, 0xDE	; 222
     a32:	de 4f       	sbci	r29, 0xFE	; 254
     a34:	e8 81       	ld	r30, Y
     a36:	f9 81       	ldd	r31, Y+1	; 0x01
     a38:	c2 52       	subi	r28, 0x22	; 34
     a3a:	d1 40       	sbci	r29, 0x01	; 1
     a3c:	80 83       	st	Z, r24
     a3e:	8d c0       	rjmp	.+282    	; 0xb5a <main+0x58e>
							}							
						}
						else                                            // off is not allowed (anymore)
						{
							channel_status[i].status = startup;			// start the channel and reset the startup timer
     a40:	21 e0       	ldi	r18, 0x01	; 1
     a42:	20 83       	st	Z, r18
							channel_status[i].startupTimer = channel_data[i].startupTime;
     a44:	ca 5d       	subi	r28, 0xDA	; 218
     a46:	de 4f       	sbci	r29, 0xFE	; 254
     a48:	e8 81       	ld	r30, Y
     a4a:	f9 81       	ldd	r31, Y+1	; 0x01
     a4c:	c6 52       	subi	r28, 0x26	; 38
     a4e:	d1 40       	sbci	r29, 0x01	; 1
     a50:	80 81       	ld	r24, Z
     a52:	ce 5d       	subi	r28, 0xDE	; 222
     a54:	de 4f       	sbci	r29, 0xFE	; 254
     a56:	e8 81       	ld	r30, Y
     a58:	f9 81       	ldd	r31, Y+1	; 0x01
     a5a:	c2 52       	subi	r28, 0x22	; 34
     a5c:	d1 40       	sbci	r29, 0x01	; 1
     a5e:	80 83       	st	Z, r24
     a60:	7c c0       	rjmp	.+248    	; 0xb5a <main+0x58e>
						}
						break;
					
					case startup:										
						channel_status[i].power = 100;					// 100 % for startup
     a62:	24 e6       	ldi	r18, 0x64	; 100
     a64:	c2 5e       	subi	r28, 0xE2	; 226
     a66:	de 4f       	sbci	r29, 0xFE	; 254
     a68:	e8 81       	ld	r30, Y
     a6a:	f9 81       	ldd	r31, Y+1	; 0x01
     a6c:	ce 51       	subi	r28, 0x1E	; 30
     a6e:	d1 40       	sbci	r29, 0x01	; 1
     a70:	20 83       	st	Z, r18
						break;
     a72:	73 c0       	rjmp	.+230    	; 0xb5a <main+0x58e>
					
					case on:
						if ((cooling == 0) && (channel_data[i].stopEnable == 1))	// if stop is enabled and no cooling needed
     a74:	31 10       	cpse	r3, r1
     a76:	0a c0       	rjmp	.+20     	; 0xa8c <main+0x4c0>
     a78:	c8 5d       	subi	r28, 0xD8	; 216
     a7a:	de 4f       	sbci	r29, 0xFE	; 254
     a7c:	a8 81       	ld	r26, Y
     a7e:	b9 81       	ldd	r27, Y+1	; 0x01
     a80:	c8 52       	subi	r28, 0x28	; 40
     a82:	d1 40       	sbci	r29, 0x01	; 1
     a84:	8c 91       	ld	r24, X
     a86:	81 30       	cpi	r24, 0x01	; 1
     a88:	09 f4       	brne	.+2      	; 0xa8c <main+0x4c0>
						{
							channel_status[i].status = off;				// turn it off
     a8a:	10 82       	st	Z, r1
#include "Timer.h"
#include "TempSensor.h"
#include "EEPROM_data.h"


int main(void)
     a8c:	c8 5d       	subi	r28, 0xD8	; 216
     a8e:	de 4f       	sbci	r29, 0xFE	; 254
     a90:	e8 81       	ld	r30, Y
     a92:	f9 81       	ldd	r31, Y+1	; 0x01
     a94:	c8 52       	subi	r28, 0x28	; 40
     a96:	d1 40       	sbci	r29, 0x01	; 1
     a98:	33 97       	sbiw	r30, 0x03	; 3
						if ((cooling == 0) && (channel_data[i].stopEnable == 1))	// if stop is enabled and no cooling needed
						{
							channel_status[i].status = off;				// turn it off
						}
						// calculate the power value out off the minimum value and the cooling value
						channel_status[i].power = (uint8_t)((((uint16_t)(100-channel_data[i].minimumPower))*cooling)/100 + channel_data[i].minimumPower);
     a9a:	40 81       	ld	r20, Z
     a9c:	84 e6       	ldi	r24, 0x64	; 100
     a9e:	90 e0       	ldi	r25, 0x00	; 0
     aa0:	84 1b       	sub	r24, r20
     aa2:	91 09       	sbc	r25, r1
     aa4:	38 9e       	mul	r3, r24
     aa6:	90 01       	movw	r18, r0
     aa8:	39 9e       	mul	r3, r25
     aaa:	30 0d       	add	r19, r0
     aac:	11 24       	eor	r1, r1
     aae:	36 95       	lsr	r19
     ab0:	27 95       	ror	r18
     ab2:	36 95       	lsr	r19
     ab4:	27 95       	ror	r18
     ab6:	ab e7       	ldi	r26, 0x7B	; 123
     ab8:	b4 e1       	ldi	r27, 0x14	; 20
     aba:	0e 94 76 18 	call	0x30ec	; 0x30ec <__umulhisi3>
     abe:	96 95       	lsr	r25
     ac0:	87 95       	ror	r24
     ac2:	48 0f       	add	r20, r24
     ac4:	c2 5e       	subi	r28, 0xE2	; 226
     ac6:	de 4f       	sbci	r29, 0xFE	; 254
     ac8:	e8 81       	ld	r30, Y
     aca:	f9 81       	ldd	r31, Y+1	; 0x01
     acc:	ce 51       	subi	r28, 0x1E	; 30
     ace:	d1 40       	sbci	r29, 0x01	; 1
     ad0:	40 83       	st	Z, r20
						break;
     ad2:	43 c0       	rjmp	.+134    	; 0xb5a <main+0x58e>
#include "Timer.h"
#include "TempSensor.h"
#include "EEPROM_data.h"


int main(void)
     ad4:	f4 01       	movw	r30, r8
				}				
			}
			 
			else								// manual mode
			{
				switch (channel_status[i].status)					// check the status
     ad6:	80 81       	ld	r24, Z
     ad8:	81 30       	cpi	r24, 0x01	; 1
     ada:	29 f1       	breq	.+74     	; 0xb26 <main+0x55a>
     adc:	18 f0       	brcs	.+6      	; 0xae4 <main+0x518>
     ade:	82 30       	cpi	r24, 0x02	; 2
     ae0:	e1 f5       	brne	.+120    	; 0xb5a <main+0x58e>
     ae2:	2a c0       	rjmp	.+84     	; 0xb38 <main+0x56c>
				{
					case off:						
						channel_status[i].power = 0;				// turn it off
     ae4:	c2 5e       	subi	r28, 0xE2	; 226
     ae6:	de 4f       	sbci	r29, 0xFE	; 254
     ae8:	a8 81       	ld	r26, Y
     aea:	b9 81       	ldd	r27, Y+1	; 0x01
     aec:	ce 51       	subi	r28, 0x1E	; 30
     aee:	d1 40       	sbci	r29, 0x01	; 1
     af0:	1c 92       	st	X, r1
						if (channel_data[i].manualPower > 0)		
     af2:	c0 5e       	subi	r28, 0xE0	; 224
     af4:	de 4f       	sbci	r29, 0xFE	; 254
     af6:	a8 81       	ld	r26, Y
     af8:	b9 81       	ldd	r27, Y+1	; 0x01
     afa:	c0 52       	subi	r28, 0x20	; 32
     afc:	d1 40       	sbci	r29, 0x01	; 1
     afe:	8c 91       	ld	r24, X
     b00:	88 23       	and	r24, r24
     b02:	59 f1       	breq	.+86     	; 0xb5a <main+0x58e>
						{
							channel_status[i].status = startup;		// start the channel and reset the startup timer
     b04:	b1 e0       	ldi	r27, 0x01	; 1
     b06:	b0 83       	st	Z, r27
							channel_status[i].startupTimer = channel_data[i].startupTime;
     b08:	ca 5d       	subi	r28, 0xDA	; 218
     b0a:	de 4f       	sbci	r29, 0xFE	; 254
     b0c:	e8 81       	ld	r30, Y
     b0e:	f9 81       	ldd	r31, Y+1	; 0x01
     b10:	c6 52       	subi	r28, 0x26	; 38
     b12:	d1 40       	sbci	r29, 0x01	; 1
     b14:	80 81       	ld	r24, Z
     b16:	ce 5d       	subi	r28, 0xDE	; 222
     b18:	de 4f       	sbci	r29, 0xFE	; 254
     b1a:	e8 81       	ld	r30, Y
     b1c:	f9 81       	ldd	r31, Y+1	; 0x01
     b1e:	c2 52       	subi	r28, 0x22	; 34
     b20:	d1 40       	sbci	r29, 0x01	; 1
     b22:	80 83       	st	Z, r24
     b24:	1a c0       	rjmp	.+52     	; 0xb5a <main+0x58e>
						}					
						break;
					
					case startup:
						channel_status[i].power = 100;				// 100 % for startup
     b26:	24 e6       	ldi	r18, 0x64	; 100
     b28:	c2 5e       	subi	r28, 0xE2	; 226
     b2a:	de 4f       	sbci	r29, 0xFE	; 254
     b2c:	e8 81       	ld	r30, Y
     b2e:	f9 81       	ldd	r31, Y+1	; 0x01
     b30:	ce 51       	subi	r28, 0x1E	; 30
     b32:	d1 40       	sbci	r29, 0x01	; 1
     b34:	20 83       	st	Z, r18
						break;
     b36:	11 c0       	rjmp	.+34     	; 0xb5a <main+0x58e>
						
					case on:
						channel_status[i].power = channel_data[i].manualPower;
     b38:	c0 5e       	subi	r28, 0xE0	; 224
     b3a:	de 4f       	sbci	r29, 0xFE	; 254
     b3c:	a8 81       	ld	r26, Y
     b3e:	b9 81       	ldd	r27, Y+1	; 0x01
     b40:	c0 52       	subi	r28, 0x20	; 32
     b42:	d1 40       	sbci	r29, 0x01	; 1
     b44:	8c 91       	ld	r24, X
     b46:	c2 5e       	subi	r28, 0xE2	; 226
     b48:	de 4f       	sbci	r29, 0xFE	; 254
     b4a:	a8 81       	ld	r26, Y
     b4c:	b9 81       	ldd	r27, Y+1	; 0x01
     b4e:	ce 51       	subi	r28, 0x1E	; 30
     b50:	d1 40       	sbci	r29, 0x01	; 1
     b52:	8c 93       	st	X, r24
						if (channel_data[i].manualPower == 0)		// if no power, go to off
     b54:	81 11       	cpse	r24, r1
     b56:	01 c0       	rjmp	.+2      	; 0xb5a <main+0x58e>
						{
							channel_status[i].status = off;
     b58:	10 82       	st	Z, r1
     b5a:	bf ef       	ldi	r27, 0xFF	; 255
     b5c:	ab 1a       	sub	r10, r27
     b5e:	bb 0a       	sbc	r11, r27
     b60:	e5 e0       	ldi	r30, 0x05	; 5
     b62:	8e 0e       	add	r8, r30
     b64:	91 1c       	adc	r9, r1
     b66:	ca 5d       	subi	r28, 0xDA	; 218
     b68:	de 4f       	sbci	r29, 0xFE	; 254
     b6a:	e8 81       	ld	r30, Y
     b6c:	f9 81       	ldd	r31, Y+1	; 0x01
     b6e:	c6 52       	subi	r28, 0x26	; 38
     b70:	d1 40       	sbci	r29, 0x01	; 1
     b72:	f6 96       	adiw	r30, 0x36	; 54
     b74:	ca 5d       	subi	r28, 0xDA	; 218
     b76:	de 4f       	sbci	r29, 0xFE	; 254
     b78:	f9 83       	std	Y+1, r31	; 0x01
     b7a:	e8 83       	st	Y, r30
     b7c:	c6 52       	subi	r28, 0x26	; 38
     b7e:	d1 40       	sbci	r29, 0x01	; 1
     b80:	ce 5d       	subi	r28, 0xDE	; 222
     b82:	de 4f       	sbci	r29, 0xFE	; 254
     b84:	e8 81       	ld	r30, Y
     b86:	f9 81       	ldd	r31, Y+1	; 0x01
     b88:	c2 52       	subi	r28, 0x22	; 34
     b8a:	d1 40       	sbci	r29, 0x01	; 1
     b8c:	35 96       	adiw	r30, 0x05	; 5
     b8e:	ce 5d       	subi	r28, 0xDE	; 222
     b90:	de 4f       	sbci	r29, 0xFE	; 254
     b92:	f9 83       	std	Y+1, r31	; 0x01
     b94:	e8 83       	st	Y, r30
     b96:	c2 52       	subi	r28, 0x22	; 34
     b98:	d1 40       	sbci	r29, 0x01	; 1
     b9a:	c2 5e       	subi	r28, 0xE2	; 226
     b9c:	de 4f       	sbci	r29, 0xFE	; 254
     b9e:	e8 81       	ld	r30, Y
     ba0:	f9 81       	ldd	r31, Y+1	; 0x01
     ba2:	ce 51       	subi	r28, 0x1E	; 30
     ba4:	d1 40       	sbci	r29, 0x01	; 1
     ba6:	35 96       	adiw	r30, 0x05	; 5
     ba8:	c2 5e       	subi	r28, 0xE2	; 226
     baa:	de 4f       	sbci	r29, 0xFE	; 254
     bac:	f9 83       	std	Y+1, r31	; 0x01
     bae:	e8 83       	st	Y, r30
     bb0:	ce 51       	subi	r28, 0x1E	; 30
     bb2:	d1 40       	sbci	r29, 0x01	; 1
     bb4:	cc 5d       	subi	r28, 0xDC	; 220
     bb6:	de 4f       	sbci	r29, 0xFE	; 254
     bb8:	e8 81       	ld	r30, Y
     bba:	f9 81       	ldd	r31, Y+1	; 0x01
     bbc:	c4 52       	subi	r28, 0x24	; 36
     bbe:	d1 40       	sbci	r29, 0x01	; 1
     bc0:	f6 96       	adiw	r30, 0x36	; 54
     bc2:	cc 5d       	subi	r28, 0xDC	; 220
     bc4:	de 4f       	sbci	r29, 0xFE	; 254
     bc6:	f9 83       	std	Y+1, r31	; 0x01
     bc8:	e8 83       	st	Y, r30
     bca:	c4 52       	subi	r28, 0x24	; 36
     bcc:	d1 40       	sbci	r29, 0x01	; 1
     bce:	c0 5e       	subi	r28, 0xE0	; 224
     bd0:	de 4f       	sbci	r29, 0xFE	; 254
     bd2:	e8 81       	ld	r30, Y
     bd4:	f9 81       	ldd	r31, Y+1	; 0x01
     bd6:	c0 52       	subi	r28, 0x20	; 32
     bd8:	d1 40       	sbci	r29, 0x01	; 1
     bda:	f6 96       	adiw	r30, 0x36	; 54
     bdc:	c0 5e       	subi	r28, 0xE0	; 224
     bde:	de 4f       	sbci	r29, 0xFE	; 254
     be0:	f9 83       	std	Y+1, r31	; 0x01
     be2:	e8 83       	st	Y, r30
     be4:	c0 52       	subi	r28, 0x20	; 32
     be6:	d1 40       	sbci	r29, 0x01	; 1
     be8:	f6 e3       	ldi	r31, 0x36	; 54
     bea:	cf 0e       	add	r12, r31
     bec:	d1 1c       	adc	r13, r1
		}
				
		alert_status.overtemp = 0;				// reset the overtemp alert 
		
		// calculate the channel power
		for (i=0;i<NUMBEROFCHANNELS;i++)
     bee:	24 e0       	ldi	r18, 0x04	; 4
     bf0:	a2 16       	cp	r10, r18
     bf2:	b1 04       	cpc	r11, r1
     bf4:	09 f0       	breq	.+2      	; 0xbf8 <main+0x62c>
     bf6:	9c ce       	rjmp	.-712    	; 0x930 <main+0x364>
     bf8:	8e 01       	movw	r16, r28
     bfa:	0e 5f       	subi	r16, 0xFE	; 254
     bfc:	1e 4f       	sbci	r17, 0xFE	; 254
     bfe:	71 2c       	mov	r7, r1
     c00:	f1 2c       	mov	r15, r1
		{
			timer_setPwm(i,channel_status[i].power);
			channel_status[i].rpm = timer_getRpm(i);
			if (channel_status[i].status == on && channel_status[i].rpm == 0 && alert_data.fanblockEnable && i != 3)
			{
				alert_status.fanblock = 1;		// fan is blocked or not started correctly
     c02:	ee 24       	eor	r14, r14
     c04:	e3 94       	inc	r14
#include "Timer.h"
#include "TempSensor.h"
#include "EEPROM_data.h"


int main(void)
     c06:	f8 01       	movw	r30, r16
     c08:	32 97       	sbiw	r30, 0x02	; 2
		alert_status.fanblock = 0;		// reset the fan block status
		
		// exchange channel with hardware timer
		for (i=0;i<NUMBEROFCHANNELS;i++)
		{
			timer_setPwm(i,channel_status[i].power);
     c0a:	60 81       	ld	r22, Z
     c0c:	8f 2d       	mov	r24, r15
     c0e:	0e 94 5d 17 	call	0x2eba	; 0x2eba <timer_setPwm>
			channel_status[i].rpm = timer_getRpm(i);
     c12:	8f 2d       	mov	r24, r15
     c14:	0e 94 e6 17 	call	0x2fcc	; 0x2fcc <timer_getRpm>
#include "Timer.h"
#include "TempSensor.h"
#include "EEPROM_data.h"


int main(void)
     c18:	f8 01       	movw	r30, r16
     c1a:	34 97       	sbiw	r30, 0x04	; 4
		
		// exchange channel with hardware timer
		for (i=0;i<NUMBEROFCHANNELS;i++)
		{
			timer_setPwm(i,channel_status[i].power);
			channel_status[i].rpm = timer_getRpm(i);
     c1c:	91 83       	std	Z+1, r25	; 0x01
     c1e:	80 83       	st	Z, r24
			if (channel_status[i].status == on && channel_status[i].rpm == 0 && alert_data.fanblockEnable && i != 3)
     c20:	d8 01       	movw	r26, r16
     c22:	2c 91       	ld	r18, X
     c24:	22 30       	cpi	r18, 0x02	; 2
     c26:	69 f4       	brne	.+26     	; 0xc42 <main+0x676>
     c28:	89 2b       	or	r24, r25
     c2a:	59 f4       	brne	.+22     	; 0xc42 <main+0x676>
     c2c:	c9 5e       	subi	r28, 0xE9	; 233
     c2e:	de 4f       	sbci	r29, 0xFE	; 254
     c30:	88 81       	ld	r24, Y
     c32:	c7 51       	subi	r28, 0x17	; 23
     c34:	d1 40       	sbci	r29, 0x01	; 1
     c36:	88 23       	and	r24, r24
     c38:	21 f0       	breq	.+8      	; 0xc42 <main+0x676>
     c3a:	b3 e0       	ldi	r27, 0x03	; 3
     c3c:	fb 16       	cp	r15, r27
     c3e:	39 f0       	breq	.+14     	; 0xc4e <main+0x682>
			{
				alert_status.fanblock = 1;		// fan is blocked or not started correctly
     c40:	7e 2c       	mov	r7, r14
		}
		
		alert_status.fanblock = 0;		// reset the fan block status
		
		// exchange channel with hardware timer
		for (i=0;i<NUMBEROFCHANNELS;i++)
     c42:	f3 94       	inc	r15
     c44:	0b 5f       	subi	r16, 0xFB	; 251
     c46:	1f 4f       	sbci	r17, 0xFF	; 255
     c48:	e4 e0       	ldi	r30, 0x04	; 4
     c4a:	fe 12       	cpse	r15, r30
     c4c:	dc cf       	rjmp	.-72     	; 0xc06 <main+0x63a>
				alert_status.fanblock = 1;		// fan is blocked or not started correctly
			}			
		}
		
		// get liter per hour
		literPerHour = timer_getLH();
     c4e:	0e 94 08 18 	call	0x3010	; 0x3010 <timer_getLH>
     c52:	6c 01       	movw	r12, r24
		if (literPerHour < alert_data.minWaterFlow)
     c54:	c8 5e       	subi	r28, 0xE8	; 232
     c56:	de 4f       	sbci	r29, 0xFE	; 254
     c58:	88 80       	ld	r8, Y
     c5a:	99 80       	ldd	r9, Y+1	; 0x01
     c5c:	c8 51       	subi	r28, 0x18	; 24
     c5e:	d1 40       	sbci	r29, 0x01	; 1
		}
			
		
		
		// led exchange and calculating
		switch (led_data.mode)		
     c60:	ce 5e       	subi	r28, 0xEE	; 238
     c62:	de 4f       	sbci	r29, 0xFE	; 254
     c64:	88 81       	ld	r24, Y
     c66:	c2 51       	subi	r28, 0x12	; 18
     c68:	d1 40       	sbci	r29, 0x01	; 1
     c6a:	88 23       	and	r24, r24
     c6c:	21 f0       	breq	.+8      	; 0xc76 <main+0x6aa>
     c6e:	81 30       	cpi	r24, 0x01	; 1
     c70:	09 f0       	breq	.+2      	; 0xc74 <main+0x6a8>
     c72:	b1 c0       	rjmp	.+354    	; 0xdd6 <main+0x80a>
     c74:	19 c0       	rjmp	.+50     	; 0xca8 <main+0x6dc>
		{
			case 0:		// manual mode
				timer_setPwm(LED_RED,led_data.manualPower[0]);
     c76:	cd 5e       	subi	r28, 0xED	; 237
     c78:	de 4f       	sbci	r29, 0xFE	; 254
     c7a:	68 81       	ld	r22, Y
     c7c:	c3 51       	subi	r28, 0x13	; 19
     c7e:	d1 40       	sbci	r29, 0x01	; 1
     c80:	84 e0       	ldi	r24, 0x04	; 4
     c82:	0e 94 5d 17 	call	0x2eba	; 0x2eba <timer_setPwm>
				timer_setPwm(LED_GREEN,led_data.manualPower[1]);
     c86:	cc 5e       	subi	r28, 0xEC	; 236
     c88:	de 4f       	sbci	r29, 0xFE	; 254
     c8a:	68 81       	ld	r22, Y
     c8c:	c4 51       	subi	r28, 0x14	; 20
     c8e:	d1 40       	sbci	r29, 0x01	; 1
     c90:	85 e0       	ldi	r24, 0x05	; 5
     c92:	0e 94 5d 17 	call	0x2eba	; 0x2eba <timer_setPwm>
				timer_setPwm(LED_BLUE,led_data.manualPower[2]);
     c96:	cb 5e       	subi	r28, 0xEB	; 235
     c98:	de 4f       	sbci	r29, 0xFE	; 254
     c9a:	68 81       	ld	r22, Y
     c9c:	c5 51       	subi	r28, 0x15	; 21
     c9e:	d1 40       	sbci	r29, 0x01	; 1
     ca0:	86 e0       	ldi	r24, 0x06	; 6
     ca2:	0e 94 5d 17 	call	0x2eba	; 0x2eba <timer_setPwm>
				break;
     ca6:	aa c0       	rjmp	.+340    	; 0xdfc <main+0x830>
				
			case 1:
				// Do calculation with ledCtr, timer_setPWM(LED_X,value), and local variables only!
				if (ledCtr < 100)
     ca8:	c2 5d       	subi	r28, 0xD2	; 210
     caa:	de 4f       	sbci	r29, 0xFE	; 254
     cac:	28 81       	ld	r18, Y
     cae:	39 81       	ldd	r19, Y+1	; 0x01
     cb0:	ce 52       	subi	r28, 0x2E	; 46
     cb2:	d1 40       	sbci	r29, 0x01	; 1
     cb4:	24 36       	cpi	r18, 0x64	; 100
     cb6:	31 05       	cpc	r19, r1
     cb8:	88 f4       	brcc	.+34     	; 0xcdc <main+0x710>
				{
					timer_setPwm(LED_RED,ledCtr);
     cba:	c2 5d       	subi	r28, 0xD2	; 210
     cbc:	de 4f       	sbci	r29, 0xFE	; 254
     cbe:	68 81       	ld	r22, Y
     cc0:	ce 52       	subi	r28, 0x2E	; 46
     cc2:	d1 40       	sbci	r29, 0x01	; 1
     cc4:	84 e0       	ldi	r24, 0x04	; 4
     cc6:	0e 94 5d 17 	call	0x2eba	; 0x2eba <timer_setPwm>
					timer_setPwm(LED_GREEN,0);
     cca:	60 e0       	ldi	r22, 0x00	; 0
     ccc:	85 e0       	ldi	r24, 0x05	; 5
     cce:	0e 94 5d 17 	call	0x2eba	; 0x2eba <timer_setPwm>
					timer_setPwm(LED_BLUE,0);
     cd2:	60 e0       	ldi	r22, 0x00	; 0
     cd4:	86 e0       	ldi	r24, 0x06	; 6
     cd6:	0e 94 5d 17 	call	0x2eba	; 0x2eba <timer_setPwm>
     cda:	90 c0       	rjmp	.+288    	; 0xdfc <main+0x830>
				} 
				else if(ledCtr < 200)
     cdc:	c2 5d       	subi	r28, 0xD2	; 210
     cde:	de 4f       	sbci	r29, 0xFE	; 254
     ce0:	88 81       	ld	r24, Y
     ce2:	99 81       	ldd	r25, Y+1	; 0x01
     ce4:	ce 52       	subi	r28, 0x2E	; 46
     ce6:	d1 40       	sbci	r29, 0x01	; 1
     ce8:	88 3c       	cpi	r24, 0xC8	; 200
     cea:	91 05       	cpc	r25, r1
     cec:	70 f4       	brcc	.+28     	; 0xd0a <main+0x73e>
				{
					timer_setPwm(LED_RED,200-ledCtr);
     cee:	68 ec       	ldi	r22, 0xC8	; 200
     cf0:	68 1b       	sub	r22, r24
     cf2:	84 e0       	ldi	r24, 0x04	; 4
     cf4:	0e 94 5d 17 	call	0x2eba	; 0x2eba <timer_setPwm>
					timer_setPwm(LED_GREEN,0);
     cf8:	60 e0       	ldi	r22, 0x00	; 0
     cfa:	85 e0       	ldi	r24, 0x05	; 5
     cfc:	0e 94 5d 17 	call	0x2eba	; 0x2eba <timer_setPwm>
					timer_setPwm(LED_BLUE,0);
     d00:	60 e0       	ldi	r22, 0x00	; 0
     d02:	86 e0       	ldi	r24, 0x06	; 6
     d04:	0e 94 5d 17 	call	0x2eba	; 0x2eba <timer_setPwm>
     d08:	79 c0       	rjmp	.+242    	; 0xdfc <main+0x830>
				}
				else if (ledCtr < 300)
     d0a:	c2 5d       	subi	r28, 0xD2	; 210
     d0c:	de 4f       	sbci	r29, 0xFE	; 254
     d0e:	a8 81       	ld	r26, Y
     d10:	b9 81       	ldd	r27, Y+1	; 0x01
     d12:	ce 52       	subi	r28, 0x2E	; 46
     d14:	d1 40       	sbci	r29, 0x01	; 1
     d16:	ac 32       	cpi	r26, 0x2C	; 44
     d18:	b1 40       	sbci	r27, 0x01	; 1
     d1a:	90 f4       	brcc	.+36     	; 0xd40 <main+0x774>
				{
					timer_setPwm(LED_GREEN,ledCtr-200);
     d1c:	c2 5d       	subi	r28, 0xD2	; 210
     d1e:	de 4f       	sbci	r29, 0xFE	; 254
     d20:	68 81       	ld	r22, Y
     d22:	ce 52       	subi	r28, 0x2E	; 46
     d24:	d1 40       	sbci	r29, 0x01	; 1
     d26:	68 5c       	subi	r22, 0xC8	; 200
     d28:	85 e0       	ldi	r24, 0x05	; 5
     d2a:	0e 94 5d 17 	call	0x2eba	; 0x2eba <timer_setPwm>
					timer_setPwm(LED_RED,0);
     d2e:	60 e0       	ldi	r22, 0x00	; 0
     d30:	84 e0       	ldi	r24, 0x04	; 4
     d32:	0e 94 5d 17 	call	0x2eba	; 0x2eba <timer_setPwm>
					timer_setPwm(LED_BLUE,0);
     d36:	60 e0       	ldi	r22, 0x00	; 0
     d38:	86 e0       	ldi	r24, 0x06	; 6
     d3a:	0e 94 5d 17 	call	0x2eba	; 0x2eba <timer_setPwm>
     d3e:	5e c0       	rjmp	.+188    	; 0xdfc <main+0x830>
				}
				else if (ledCtr < 400)
     d40:	c2 5d       	subi	r28, 0xD2	; 210
     d42:	de 4f       	sbci	r29, 0xFE	; 254
     d44:	28 81       	ld	r18, Y
     d46:	39 81       	ldd	r19, Y+1	; 0x01
     d48:	ce 52       	subi	r28, 0x2E	; 46
     d4a:	d1 40       	sbci	r29, 0x01	; 1
     d4c:	20 39       	cpi	r18, 0x90	; 144
     d4e:	41 e0       	ldi	r20, 0x01	; 1
     d50:	34 07       	cpc	r19, r20
     d52:	70 f4       	brcc	.+28     	; 0xd70 <main+0x7a4>
				{
					timer_setPwm(LED_GREEN,400-ledCtr);
     d54:	60 e9       	ldi	r22, 0x90	; 144
     d56:	62 1b       	sub	r22, r18
     d58:	85 e0       	ldi	r24, 0x05	; 5
     d5a:	0e 94 5d 17 	call	0x2eba	; 0x2eba <timer_setPwm>
					timer_setPwm(LED_RED,0);
     d5e:	60 e0       	ldi	r22, 0x00	; 0
     d60:	84 e0       	ldi	r24, 0x04	; 4
     d62:	0e 94 5d 17 	call	0x2eba	; 0x2eba <timer_setPwm>
					timer_setPwm(LED_BLUE,0);
     d66:	60 e0       	ldi	r22, 0x00	; 0
     d68:	86 e0       	ldi	r24, 0x06	; 6
     d6a:	0e 94 5d 17 	call	0x2eba	; 0x2eba <timer_setPwm>
     d6e:	46 c0       	rjmp	.+140    	; 0xdfc <main+0x830>
				}
				else if (ledCtr < 500)
     d70:	c2 5d       	subi	r28, 0xD2	; 210
     d72:	de 4f       	sbci	r29, 0xFE	; 254
     d74:	88 81       	ld	r24, Y
     d76:	99 81       	ldd	r25, Y+1	; 0x01
     d78:	ce 52       	subi	r28, 0x2E	; 46
     d7a:	d1 40       	sbci	r29, 0x01	; 1
     d7c:	84 3f       	cpi	r24, 0xF4	; 244
     d7e:	91 40       	sbci	r25, 0x01	; 1
     d80:	90 f4       	brcc	.+36     	; 0xda6 <main+0x7da>
				{
					timer_setPwm(LED_BLUE,ledCtr-400);
     d82:	c2 5d       	subi	r28, 0xD2	; 210
     d84:	de 4f       	sbci	r29, 0xFE	; 254
     d86:	68 81       	ld	r22, Y
     d88:	ce 52       	subi	r28, 0x2E	; 46
     d8a:	d1 40       	sbci	r29, 0x01	; 1
     d8c:	60 59       	subi	r22, 0x90	; 144
     d8e:	86 e0       	ldi	r24, 0x06	; 6
     d90:	0e 94 5d 17 	call	0x2eba	; 0x2eba <timer_setPwm>
					timer_setPwm(LED_RED,0);
     d94:	60 e0       	ldi	r22, 0x00	; 0
     d96:	84 e0       	ldi	r24, 0x04	; 4
     d98:	0e 94 5d 17 	call	0x2eba	; 0x2eba <timer_setPwm>
					timer_setPwm(LED_GREEN,0);
     d9c:	60 e0       	ldi	r22, 0x00	; 0
     d9e:	85 e0       	ldi	r24, 0x05	; 5
     da0:	0e 94 5d 17 	call	0x2eba	; 0x2eba <timer_setPwm>
     da4:	2b c0       	rjmp	.+86     	; 0xdfc <main+0x830>
				}
				else if (ledCtr < 600)
     da6:	c2 5d       	subi	r28, 0xD2	; 210
     da8:	de 4f       	sbci	r29, 0xFE	; 254
     daa:	e8 81       	ld	r30, Y
     dac:	f9 81       	ldd	r31, Y+1	; 0x01
     dae:	ce 52       	subi	r28, 0x2E	; 46
     db0:	d1 40       	sbci	r29, 0x01	; 1
     db2:	e8 35       	cpi	r30, 0x58	; 88
     db4:	22 e0       	ldi	r18, 0x02	; 2
     db6:	f2 07       	cpc	r31, r18
     db8:	d8 f4       	brcc	.+54     	; 0xdf0 <main+0x824>
				{
					timer_setPwm(LED_BLUE,600-ledCtr);
     dba:	68 e5       	ldi	r22, 0x58	; 88
     dbc:	6e 1b       	sub	r22, r30
     dbe:	86 e0       	ldi	r24, 0x06	; 6
     dc0:	0e 94 5d 17 	call	0x2eba	; 0x2eba <timer_setPwm>
					timer_setPwm(LED_RED,0);
     dc4:	60 e0       	ldi	r22, 0x00	; 0
     dc6:	84 e0       	ldi	r24, 0x04	; 4
     dc8:	0e 94 5d 17 	call	0x2eba	; 0x2eba <timer_setPwm>
					timer_setPwm(LED_GREEN,0);
     dcc:	60 e0       	ldi	r22, 0x00	; 0
     dce:	85 e0       	ldi	r24, 0x05	; 5
     dd0:	0e 94 5d 17 	call	0x2eba	; 0x2eba <timer_setPwm>
     dd4:	13 c0       	rjmp	.+38     	; 0xdfc <main+0x830>
					ledCtr = 0;
				}
				break;
				
			default:	// wrong mode, red led on
				timer_setPwm(LED_BLUE,0);
     dd6:	60 e0       	ldi	r22, 0x00	; 0
     dd8:	86 e0       	ldi	r24, 0x06	; 6
     dda:	0e 94 5d 17 	call	0x2eba	; 0x2eba <timer_setPwm>
				timer_setPwm(LED_GREEN,0);
     dde:	60 e0       	ldi	r22, 0x00	; 0
     de0:	85 e0       	ldi	r24, 0x05	; 5
     de2:	0e 94 5d 17 	call	0x2eba	; 0x2eba <timer_setPwm>
				timer_setPwm(LED_RED,100);
     de6:	64 e6       	ldi	r22, 0x64	; 100
     de8:	84 e0       	ldi	r24, 0x04	; 4
     dea:	0e 94 5d 17 	call	0x2eba	; 0x2eba <timer_setPwm>
				break;				
     dee:	06 c0       	rjmp	.+12     	; 0xdfc <main+0x830>
					timer_setPwm(LED_RED,0);
					timer_setPwm(LED_GREEN,0);
				} 
				else
				{
					ledCtr = 0;
     df0:	c2 5d       	subi	r28, 0xD2	; 210
     df2:	de 4f       	sbci	r29, 0xFE	; 254
     df4:	19 82       	std	Y+1, r1	; 0x01
     df6:	18 82       	st	Y, r1
     df8:	ce 52       	subi	r28, 0x2E	; 46
     dfa:	d1 40       	sbci	r29, 0x01	; 1
		
				
			
		
		// each 524ms
		if (timer_524ms())
     dfc:	0e 94 27 18 	call	0x304e	; 0x304e <timer_524ms>
     e00:	88 23       	and	r24, r24
     e02:	81 f1       	breq	.+96     	; 0xe64 <main+0x898>
#include "Timer.h"
#include "TempSensor.h"
#include "EEPROM_data.h"


int main(void)
     e04:	8e ef       	ldi	r24, 0xFE	; 254
     e06:	90 e0       	ldi	r25, 0x00	; 0
     e08:	8c 0f       	add	r24, r28
     e0a:	9d 1f       	adc	r25, r29
     e0c:	47 96       	adiw	r24, 0x17	; 23
     e0e:	fe 01       	movw	r30, r28
     e10:	ee 5f       	subi	r30, 0xFE	; 254
     e12:	fe 4f       	sbci	r31, 0xFE	; 254
					channel_status[i].startupTimer--;
				}
				if (channel_status[i].startupTimer == 1)
				{
					channel_status[i].startupTimer = 0;
					channel_status[i].status = on;		// go to on if startup time is over
     e14:	32 e0       	ldi	r19, 0x02	; 2
     e16:	bf 01       	movw	r22, r30
     e18:	c0 5d       	subi	r28, 0xD0	; 208
     e1a:	de 4f       	sbci	r29, 0xFE	; 254
     e1c:	a8 81       	ld	r26, Y
     e1e:	b9 81       	ldd	r27, Y+1	; 0x01
     e20:	c0 53       	subi	r28, 0x30	; 48
     e22:	d1 40       	sbci	r29, 0x01	; 1
#include "Timer.h"
#include "TempSensor.h"
#include "EEPROM_data.h"


int main(void)
     e24:	ad 01       	movw	r20, r26
		if (timer_524ms())
		{			
			// decrement the channel startup timers
			for (i=0;i<NUMBEROFCHANNELS;i++)
			{
				if (channel_status[i].startupTimer > 1)
     e26:	2c 91       	ld	r18, X
     e28:	22 30       	cpi	r18, 0x02	; 2
     e2a:	10 f0       	brcs	.+4      	; 0xe30 <main+0x864>
				{
					channel_status[i].startupTimer--;
     e2c:	21 50       	subi	r18, 0x01	; 1
     e2e:	2c 93       	st	X, r18
				}
				if (channel_status[i].startupTimer == 1)
     e30:	fa 01       	movw	r30, r20
     e32:	20 81       	ld	r18, Z
     e34:	21 30       	cpi	r18, 0x01	; 1
     e36:	19 f4       	brne	.+6      	; 0xe3e <main+0x872>
				{
					channel_status[i].startupTimer = 0;
     e38:	10 82       	st	Z, r1
					channel_status[i].status = on;		// go to on if startup time is over
     e3a:	fb 01       	movw	r30, r22
     e3c:	30 83       	st	Z, r19
     e3e:	15 96       	adiw	r26, 0x05	; 5
     e40:	6b 5f       	subi	r22, 0xFB	; 251
     e42:	7f 4f       	sbci	r23, 0xFF	; 255
		
		// each 524ms
		if (timer_524ms())
		{			
			// decrement the channel startup timers
			for (i=0;i<NUMBEROFCHANNELS;i++)
     e44:	a8 17       	cp	r26, r24
     e46:	b9 07       	cpc	r27, r25
     e48:	69 f7       	brne	.-38     	; 0xe24 <main+0x858>
					channel_status[i].status = on;		// go to on if startup time is over
				}
			}
			
			// increment the spare temperature timer
			if (spare_temperatureTimer < 255)
     e4a:	c3 5d       	subi	r28, 0xD3	; 211
     e4c:	de 4f       	sbci	r29, 0xFE	; 254
     e4e:	f8 81       	ld	r31, Y
     e50:	cd 52       	subi	r28, 0x2D	; 45
     e52:	d1 40       	sbci	r29, 0x01	; 1
     e54:	ff 3f       	cpi	r31, 0xFF	; 255
     e56:	31 f0       	breq	.+12     	; 0xe64 <main+0x898>
			{
				spare_temperatureTimer ++;
     e58:	ff 5f       	subi	r31, 0xFF	; 255
     e5a:	c3 5d       	subi	r28, 0xD3	; 211
     e5c:	de 4f       	sbci	r29, 0xFE	; 254
     e5e:	f8 83       	st	Y, r31
     e60:	cd 52       	subi	r28, 0x2D	; 45
     e62:	d1 40       	sbci	r29, 0x01	; 1
			
				
		}
			
		// each 100ms
		if (timer_100ms())
     e64:	0e 94 31 18 	call	0x3062	; 0x3062 <timer_100ms>
     e68:	88 23       	and	r24, r24
     e6a:	09 f4       	brne	.+2      	; 0xe6e <main+0x8a2>
     e6c:	c6 c0       	rjmp	.+396    	; 0xffa <main+0xa2e>
     e6e:	0f 2e       	mov	r0, r31
     e70:	f6 e0       	ldi	r31, 0x06	; 6
     e72:	af 2e       	mov	r10, r31
     e74:	b1 2c       	mov	r11, r1
     e76:	f0 2d       	mov	r31, r0
     e78:	ac 0e       	add	r10, r28
     e7a:	bd 1e       	adc	r11, r29
#include "Timer.h"
#include "TempSensor.h"
#include "EEPROM_data.h"


int main(void)
     e7c:	7e 01       	movw	r14, r28
     e7e:	26 e1       	ldi	r18, 0x16	; 22
     e80:	e2 0e       	add	r14, r18
     e82:	f1 1c       	adc	r15, r1
     e84:	c6 5d       	subi	r28, 0xD6	; 214
     e86:	de 4f       	sbci	r29, 0xFE	; 254
     e88:	08 81       	ld	r16, Y
     e8a:	ca 52       	subi	r28, 0x2A	; 42
     e8c:	d1 40       	sbci	r29, 0x01	; 1
     e8e:	c5 5d       	subi	r28, 0xD5	; 213
     e90:	de 4f       	sbci	r29, 0xFE	; 254
     e92:	18 81       	ld	r17, Y
     e94:	cb 52       	subi	r28, 0x2B	; 43
     e96:	d1 40       	sbci	r29, 0x01	; 1
		if (timer_100ms())
		{
			// get the temperatures
			for (i=0;i<16;i++)
			{
				temperature[i] = tempSensor_getTemp(i);		// read out up to 8 NTC-Sensors and 8 1-Wire sensors
     e98:	80 2f       	mov	r24, r16
     e9a:	c4 5e       	subi	r28, 0xE4	; 228
     e9c:	de 4f       	sbci	r29, 0xFE	; 254
     e9e:	38 81       	ld	r19, Y
     ea0:	cc 51       	subi	r28, 0x1C	; 28
     ea2:	d1 40       	sbci	r29, 0x01	; 1
     ea4:	83 1b       	sub	r24, r19
     ea6:	0e 94 2d 15 	call	0x2a5a	; 0x2a5a <tempSensor_getTemp>
     eaa:	d8 01       	movw	r26, r16
     eac:	8d 93       	st	X+, r24
     eae:	8d 01       	movw	r16, r26
			
		// each 100ms
		if (timer_100ms())
		{
			// get the temperatures
			for (i=0;i<16;i++)
     eb0:	ae 15       	cp	r26, r14
     eb2:	bf 05       	cpc	r27, r15
     eb4:	89 f7       	brne	.-30     	; 0xe98 <main+0x8cc>
			{
				temperature[i] = tempSensor_getTemp(i);		// read out up to 8 NTC-Sensors and 8 1-Wire sensors
			}
						
			
			ledCtr++;
     eb6:	c2 5d       	subi	r28, 0xD2	; 210
     eb8:	de 4f       	sbci	r29, 0xFE	; 254
     eba:	e8 81       	ld	r30, Y
     ebc:	f9 81       	ldd	r31, Y+1	; 0x01
     ebe:	ce 52       	subi	r28, 0x2E	; 46
     ec0:	d1 40       	sbci	r29, 0x01	; 1
     ec2:	31 96       	adiw	r30, 0x01	; 1
     ec4:	c2 5d       	subi	r28, 0xD2	; 210
     ec6:	de 4f       	sbci	r29, 0xFE	; 254
     ec8:	f9 83       	std	Y+1, r31	; 0x01
     eca:	e8 83       	st	Y, r30
     ecc:	ce 52       	subi	r28, 0x2E	; 46
     ece:	d1 40       	sbci	r29, 0x01	; 1
			
			
			
			// send some actual information to the PC
			// every 100 ms an other of these messages 
			messageCtr++;
     ed0:	c4 5d       	subi	r28, 0xD4	; 212
     ed2:	de 4f       	sbci	r29, 0xFE	; 254
     ed4:	f8 81       	ld	r31, Y
     ed6:	cc 52       	subi	r28, 0x2C	; 44
     ed8:	d1 40       	sbci	r29, 0x01	; 1
     eda:	ff 5f       	subi	r31, 0xFF	; 255
     edc:	c4 5d       	subi	r28, 0xD4	; 212
     ede:	de 4f       	sbci	r29, 0xFE	; 254
     ee0:	f8 83       	st	Y, r31
     ee2:	cc 52       	subi	r28, 0x2C	; 44
     ee4:	d1 40       	sbci	r29, 0x01	; 1
			aDataSet.dA = SERIALPORT_DATA;
     ee6:	19 82       	std	Y+1, r1	; 0x01
			switch (messageCtr)
     ee8:	f3 30       	cpi	r31, 0x03	; 3
     eea:	09 f4       	brne	.+2      	; 0xeee <main+0x922>
     eec:	46 c0       	rjmp	.+140    	; 0xf7a <main+0x9ae>
     eee:	30 f4       	brcc	.+12     	; 0xefc <main+0x930>
     ef0:	f1 30       	cpi	r31, 0x01	; 1
     ef2:	81 f0       	breq	.+32     	; 0xf14 <main+0x948>
     ef4:	f2 30       	cpi	r31, 0x02	; 2
     ef6:	09 f0       	breq	.+2      	; 0xefa <main+0x92e>
     ef8:	80 c0       	rjmp	.+256    	; 0xffa <main+0xa2e>
     efa:	1d c0       	rjmp	.+58     	; 0xf36 <main+0x96a>
     efc:	c4 5d       	subi	r28, 0xD4	; 212
     efe:	de 4f       	sbci	r29, 0xFE	; 254
     f00:	28 81       	ld	r18, Y
     f02:	cc 52       	subi	r28, 0x2C	; 44
     f04:	d1 40       	sbci	r29, 0x01	; 1
     f06:	24 30       	cpi	r18, 0x04	; 4
     f08:	09 f4       	brne	.+2      	; 0xf0c <main+0x940>
     f0a:	42 c0       	rjmp	.+132    	; 0xf90 <main+0x9c4>
     f0c:	25 30       	cpi	r18, 0x05	; 5
     f0e:	09 f0       	breq	.+2      	; 0xf12 <main+0x946>
     f10:	74 c0       	rjmp	.+232    	; 0xffa <main+0xa2e>
     f12:	55 c0       	rjmp	.+170    	; 0xfbe <main+0x9f2>
			{
				case 1:		// temperatures
					aDataSet.id = 30;					
     f14:	8e e1       	ldi	r24, 0x1E	; 30
     f16:	8a 83       	std	Y+2, r24	; 0x02
					for (i=0;i<24;i++)
     f18:	10 e0       	ldi	r17, 0x00	; 0
					{
						aDataSet.index = i + 1;
     f1a:	1f 5f       	subi	r17, 0xFF	; 255
     f1c:	1b 83       	std	Y+3, r17	; 0x03
						aDataSet.data = temperature[i];
     f1e:	d5 01       	movw	r26, r10
     f20:	8d 91       	ld	r24, X+
     f22:	5d 01       	movw	r10, r26
     f24:	8c 83       	std	Y+4, r24	; 0x04
     f26:	1d 82       	std	Y+5, r1	; 0x05
						serialport_writeCarriage(&aDataSet);
     f28:	ce 01       	movw	r24, r28
     f2a:	01 96       	adiw	r24, 0x01	; 1
     f2c:	0e 94 0d 12 	call	0x241a	; 0x241a <serialport_writeCarriage>
			aDataSet.dA = SERIALPORT_DATA;
			switch (messageCtr)
			{
				case 1:		// temperatures
					aDataSet.id = 30;					
					for (i=0;i<24;i++)
     f30:	18 31       	cpi	r17, 0x18	; 24
     f32:	99 f7       	brne	.-26     	; 0xf1a <main+0x94e>
     f34:	62 c0       	rjmp	.+196    	; 0xffa <main+0xa2e>
						serialport_writeCarriage(&aDataSet);
					}
					break;
			
				case 2:		// alerts
					aDataSet.id = 50;
     f36:	82 e3       	ldi	r24, 0x32	; 50
     f38:	8a 83       	std	Y+2, r24	; 0x02
					aDataSet.index = 1;
     f3a:	81 e0       	ldi	r24, 0x01	; 1
     f3c:	8b 83       	std	Y+3, r24	; 0x03
					aDataSet.data = alert_status.overtemp;
     f3e:	2c 82       	std	Y+4, r2	; 0x04
     f40:	1d 82       	std	Y+5, r1	; 0x05
					serialport_writeCarriage(&aDataSet);
     f42:	ce 01       	movw	r24, r28
     f44:	01 96       	adiw	r24, 0x01	; 1
     f46:	0e 94 0d 12 	call	0x241a	; 0x241a <serialport_writeCarriage>
					aDataSet.index = 2;
     f4a:	82 e0       	ldi	r24, 0x02	; 2
     f4c:	8b 83       	std	Y+3, r24	; 0x03
					aDataSet.data = alert_status.fanblock;
     f4e:	7c 82       	std	Y+4, r7	; 0x04
     f50:	1d 82       	std	Y+5, r1	; 0x05
					serialport_writeCarriage(&aDataSet);
     f52:	ce 01       	movw	r24, r28
     f54:	01 96       	adiw	r24, 0x01	; 1
     f56:	0e 94 0d 12 	call	0x241a	; 0x241a <serialport_writeCarriage>
					aDataSet.index = 3;
     f5a:	83 e0       	ldi	r24, 0x03	; 3
     f5c:	8b 83       	std	Y+3, r24	; 0x03
			}			
		}
		
		// get liter per hour
		literPerHour = timer_getLH();
		if (literPerHour < alert_data.minWaterFlow)
     f5e:	81 e0       	ldi	r24, 0x01	; 1
     f60:	90 e0       	ldi	r25, 0x00	; 0
     f62:	c8 14       	cp	r12, r8
     f64:	d9 04       	cpc	r13, r9
     f66:	10 f0       	brcs	.+4      	; 0xf6c <main+0x9a0>
     f68:	80 e0       	ldi	r24, 0x00	; 0
     f6a:	90 e0       	ldi	r25, 0x00	; 0
					serialport_writeCarriage(&aDataSet);
					aDataSet.index = 2;
					aDataSet.data = alert_status.fanblock;
					serialport_writeCarriage(&aDataSet);
					aDataSet.index = 3;
					aDataSet.data = alert_status.lowWaterFlow;
     f6c:	9d 83       	std	Y+5, r25	; 0x05
     f6e:	8c 83       	std	Y+4, r24	; 0x04
					serialport_writeCarriage(&aDataSet);
     f70:	ce 01       	movw	r24, r28
     f72:	01 96       	adiw	r24, 0x01	; 1
     f74:	0e 94 0d 12 	call	0x241a	; 0x241a <serialport_writeCarriage>
					break;
     f78:	40 c0       	rjmp	.+128    	; 0xffa <main+0xa2e>
			
				case 3:		// water flow
					aDataSet.id = 60;
     f7a:	8c e3       	ldi	r24, 0x3C	; 60
     f7c:	8a 83       	std	Y+2, r24	; 0x02
					aDataSet.index = 1;
     f7e:	81 e0       	ldi	r24, 0x01	; 1
     f80:	8b 83       	std	Y+3, r24	; 0x03
					aDataSet.data = literPerHour;
     f82:	dd 82       	std	Y+5, r13	; 0x05
     f84:	cc 82       	std	Y+4, r12	; 0x04
					serialport_writeCarriage(&aDataSet);
     f86:	ce 01       	movw	r24, r28
     f88:	01 96       	adiw	r24, 0x01	; 1
     f8a:	0e 94 0d 12 	call	0x241a	; 0x241a <serialport_writeCarriage>
					break;
     f8e:	35 c0       	rjmp	.+106    	; 0xffa <main+0xa2e>
			
				case 4:		// RPM of channels
					aDataSet.id = 61;
     f90:	8d e3       	ldi	r24, 0x3D	; 61
     f92:	8a 83       	std	Y+2, r24	; 0x02
     f94:	8e 01       	movw	r16, r28
     f96:	02 50       	subi	r16, 0x02	; 2
     f98:	1f 4f       	sbci	r17, 0xFF	; 255
					for (i= 0;i<4;i++)
     f9a:	f1 2c       	mov	r15, r1
					{
						aDataSet.index = i + 1;
     f9c:	f3 94       	inc	r15
     f9e:	fb 82       	std	Y+3, r15	; 0x03
						aDataSet.data = channel_status[i].rpm;
     fa0:	f8 01       	movw	r30, r16
     fa2:	80 81       	ld	r24, Z
     fa4:	91 81       	ldd	r25, Z+1	; 0x01
     fa6:	9d 83       	std	Y+5, r25	; 0x05
     fa8:	8c 83       	std	Y+4, r24	; 0x04
						serialport_writeCarriage(&aDataSet);
     faa:	ce 01       	movw	r24, r28
     fac:	01 96       	adiw	r24, 0x01	; 1
     fae:	0e 94 0d 12 	call	0x241a	; 0x241a <serialport_writeCarriage>
     fb2:	0b 5f       	subi	r16, 0xFB	; 251
     fb4:	1f 4f       	sbci	r17, 0xFF	; 255
					serialport_writeCarriage(&aDataSet);
					break;
			
				case 4:		// RPM of channels
					aDataSet.id = 61;
					for (i= 0;i<4;i++)
     fb6:	f4 e0       	ldi	r31, 0x04	; 4
     fb8:	ff 12       	cpse	r15, r31
     fba:	f0 cf       	rjmp	.-32     	; 0xf9c <main+0x9d0>
     fbc:	1e c0       	rjmp	.+60     	; 0xffa <main+0xa2e>
						serialport_writeCarriage(&aDataSet);
					}
					break;
			
				case 5:		// power values
					aDataSet.id = 62;
     fbe:	8e e3       	ldi	r24, 0x3E	; 62
     fc0:	8a 83       	std	Y+2, r24	; 0x02
					aDataSet.dA = SERIALPORT_DATA;
					for (i= 0;i<NUMBEROFCHANNELS;i++)
     fc2:	10 e0       	ldi	r17, 0x00	; 0
					{
						aDataSet.index = i + 1;
						aDataSet.data = channel_status[i].power;
						serialport_writeCarriage(&aDataSet);
     fc4:	f1 2e       	mov	r15, r17
     fc6:	cc 5b       	subi	r28, 0xBC	; 188
     fc8:	de 4f       	sbci	r29, 0xFE	; 254
     fca:	08 81       	ld	r16, Y
     fcc:	19 81       	ldd	r17, Y+1	; 0x01
     fce:	c4 54       	subi	r28, 0x44	; 68
     fd0:	d1 40       	sbci	r29, 0x01	; 1
				case 5:		// power values
					aDataSet.id = 62;
					aDataSet.dA = SERIALPORT_DATA;
					for (i= 0;i<NUMBEROFCHANNELS;i++)
					{
						aDataSet.index = i + 1;
     fd2:	f3 94       	inc	r15
     fd4:	fb 82       	std	Y+3, r15	; 0x03
						aDataSet.data = channel_status[i].power;
     fd6:	d8 01       	movw	r26, r16
     fd8:	8c 91       	ld	r24, X
     fda:	8c 83       	std	Y+4, r24	; 0x04
     fdc:	1d 82       	std	Y+5, r1	; 0x05
						serialport_writeCarriage(&aDataSet);
     fde:	ce 01       	movw	r24, r28
     fe0:	01 96       	adiw	r24, 0x01	; 1
     fe2:	0e 94 0d 12 	call	0x241a	; 0x241a <serialport_writeCarriage>
     fe6:	0b 5f       	subi	r16, 0xFB	; 251
     fe8:	1f 4f       	sbci	r17, 0xFF	; 255
					break;
			
				case 5:		// power values
					aDataSet.id = 62;
					aDataSet.dA = SERIALPORT_DATA;
					for (i= 0;i<NUMBEROFCHANNELS;i++)
     fea:	b4 e0       	ldi	r27, 0x04	; 4
     fec:	fb 12       	cpse	r15, r27
     fee:	f1 cf       	rjmp	.-30     	; 0xfd2 <main+0xa06>
					{
						aDataSet.index = i + 1;
						aDataSet.data = channel_status[i].power;
						serialport_writeCarriage(&aDataSet);
					}
					messageCtr = 0;
     ff0:	c4 5d       	subi	r28, 0xD4	; 212
     ff2:	de 4f       	sbci	r29, 0xFE	; 254
     ff4:	18 82       	st	Y, r1
     ff6:	cc 52       	subi	r28, 0x2C	; 44
     ff8:	d1 40       	sbci	r29, 0x01	; 1
			}				
		}			
		
		
		// check for received carriages
		if (serialport_getLastCarriage(&aDataSet) == 0)								// new carriage received
     ffa:	ce 01       	movw	r24, r28
     ffc:	01 96       	adiw	r24, 0x01	; 1
     ffe:	0e 94 83 10 	call	0x2106	; 0x2106 <serialport_getLastCarriage>
    1002:	81 11       	cpse	r24, r1
    1004:	7b cc       	rjmp	.-1802   	; 0x8fc <main+0x330>
		{
						
			if (aDataSet.dA == SERIALPORT_DATA)			// new data
    1006:	89 81       	ldd	r24, Y+1	; 0x01
    1008:	81 11       	cpse	r24, r1
    100a:	b4 c1       	rjmp	.+872    	; 0x1374 <main+0xda8>
			{
				switch(aDataSet.id)
    100c:	8a 81       	ldd	r24, Y+2	; 0x02
    100e:	90 e0       	ldi	r25, 0x00	; 0
    1010:	fc 01       	movw	r30, r24
    1012:	31 97       	sbiw	r30, 0x01	; 1
    1014:	ef 34       	cpi	r30, 0x4F	; 79
    1016:	f1 05       	cpc	r31, r1
    1018:	08 f0       	brcs	.+2      	; 0x101c <main+0xa50>
    101a:	ac c1       	rjmp	.+856    	; 0x1374 <main+0xda8>
    101c:	ee 58       	subi	r30, 0x8E	; 142
    101e:	ff 4f       	sbci	r31, 0xFF	; 255
    1020:	0c 94 70 18 	jmp	0x30e0	; 0x30e0 <__tablejump2__>
				{
					case 01:							// reset
						if (aDataSet.index == 170 && aDataSet.data == 85)
    1024:	8b 81       	ldd	r24, Y+3	; 0x03
    1026:	8a 3a       	cpi	r24, 0xAA	; 170
    1028:	09 f0       	breq	.+2      	; 0x102c <main+0xa60>
    102a:	68 cc       	rjmp	.-1840   	; 0x8fc <main+0x330>
    102c:	8c 81       	ldd	r24, Y+4	; 0x04
    102e:	9d 81       	ldd	r25, Y+5	; 0x05
    1030:	85 35       	cpi	r24, 0x55	; 85
    1032:	91 05       	cpc	r25, r1
    1034:	09 f0       	breq	.+2      	; 0x1038 <main+0xa6c>
    1036:	62 cc       	rjmp	.-1852   	; 0x8fc <main+0x330>
						{
							cli();						// disable interrupts
    1038:	f8 94       	cli
							wdt_reset();				// reset via watchdog
    103a:	a8 95       	wdr
	#else
		//round up by default
		__ticks_dc = (uint32_t)(ceil(fabs(__tmp)));
	#endif

	__builtin_avr_delay_cycles(__ticks_dc);
    103c:	ef e9       	ldi	r30, 0x9F	; 159
    103e:	ff e0       	ldi	r31, 0x0F	; 15
    1040:	31 97       	sbiw	r30, 0x01	; 1
    1042:	f1 f7       	brne	.-4      	; 0x1040 <main+0xa74>
    1044:	00 c0       	rjmp	.+0      	; 0x1046 <main+0xa7a>
    1046:	00 00       	nop
    1048:	95 c1       	rjmp	.+810    	; 0x1374 <main+0xda8>
							_delay_ms(1);				// wait until reset occurs
						}						
						break;
						
					case 30:							// temperatures from AIDA or other PC software
						temperature[aDataSet.index-1] = aDataSet.data;
    104a:	8b 81       	ldd	r24, Y+3	; 0x03
    104c:	fe 01       	movw	r30, r28
    104e:	e8 0f       	add	r30, r24
    1050:	f1 1d       	adc	r31, r1
    1052:	8c 81       	ldd	r24, Y+4	; 0x04
    1054:	85 83       	std	Z+5, r24	; 0x05
						spare_temperatureTimer = 0;
    1056:	c3 5d       	subi	r28, 0xD3	; 211
    1058:	de 4f       	sbci	r29, 0xFE	; 254
    105a:	18 82       	st	Y, r1
    105c:	cd 52       	subi	r28, 0x2D	; 45
    105e:	d1 40       	sbci	r29, 0x01	; 1
						break;
    1060:	89 c1       	rjmp	.+786    	; 0x1374 <main+0xda8>
					
					case 11:							// minimum temperatures channel 0
						channel_data[0].minTemp[aDataSet.index-1] = aDataSet.data;
    1062:	8b 81       	ldd	r24, Y+3	; 0x03
    1064:	90 e0       	ldi	r25, 0x00	; 0
    1066:	01 97       	sbiw	r24, 0x01	; 1
    1068:	6c 81       	ldd	r22, Y+4	; 0x04
    106a:	e6 e2       	ldi	r30, 0x26	; 38
    106c:	f0 e0       	ldi	r31, 0x00	; 0
    106e:	ec 0f       	add	r30, r28
    1070:	fd 1f       	adc	r31, r29
    1072:	e8 0f       	add	r30, r24
    1074:	f9 1f       	adc	r31, r25
    1076:	60 83       	st	Z, r22
						eeprom_update_byte(&eeprom_channel_data[0].minTemp[aDataSet.index-1], channel_data[0].minTemp[aDataSet.index-1]);
    1078:	8e 5c       	subi	r24, 0xCE	; 206
    107a:	9e 4f       	sbci	r25, 0xFE	; 254
    107c:	0e 94 ab 18 	call	0x3156	; 0x3156 <__eeupd_byte_m2560>
						break;
    1080:	79 c1       	rjmp	.+754    	; 0x1374 <main+0xda8>
					
					case 21:							// maximum temperatures channel 0
						channel_data[0].maxTemp[aDataSet.index-1] = aDataSet.data;
    1082:	8b 81       	ldd	r24, Y+3	; 0x03
    1084:	90 e0       	ldi	r25, 0x00	; 0
    1086:	6c 81       	ldd	r22, Y+4	; 0x04
    1088:	fe 01       	movw	r30, r28
    108a:	e8 0f       	add	r30, r24
    108c:	f9 1f       	adc	r31, r25
    108e:	65 af       	std	Z+61, r22	; 0x3d
						eeprom_update_byte(&eeprom_channel_data[0].maxTemp[aDataSet.index-1], channel_data[0].maxTemp[aDataSet.index-1]);
    1090:	87 5b       	subi	r24, 0xB7	; 183
    1092:	9e 4f       	sbci	r25, 0xFE	; 254
    1094:	0e 94 ab 18 	call	0x3156	; 0x3156 <__eeupd_byte_m2560>
						break;
    1098:	6d c1       	rjmp	.+730    	; 0x1374 <main+0xda8>
					
					case 12:							// minimum temperatures channel 1
						channel_data[1].minTemp[aDataSet.index-1] = aDataSet.data;
    109a:	8b 81       	ldd	r24, Y+3	; 0x03
    109c:	90 e0       	ldi	r25, 0x00	; 0
    109e:	6c 81       	ldd	r22, Y+4	; 0x04
    10a0:	fe 01       	movw	r30, r28
    10a2:	e8 0f       	add	r30, r24
    10a4:	f9 1f       	adc	r31, r25
    10a6:	e5 5a       	subi	r30, 0xA5	; 165
    10a8:	ff 4f       	sbci	r31, 0xFF	; 255
    10aa:	60 83       	st	Z, r22
						eeprom_update_byte(&eeprom_channel_data[1].minTemp[aDataSet.index-1], channel_data[1].minTemp[aDataSet.index-1]);
    10ac:	89 59       	subi	r24, 0x99	; 153
    10ae:	9e 4f       	sbci	r25, 0xFE	; 254
    10b0:	0e 94 ab 18 	call	0x3156	; 0x3156 <__eeupd_byte_m2560>
						break;
    10b4:	5f c1       	rjmp	.+702    	; 0x1374 <main+0xda8>
					
					case 22:							// maximum temperatures channel 1
						channel_data[1].maxTemp[aDataSet.index-1] = aDataSet.data;
    10b6:	8b 81       	ldd	r24, Y+3	; 0x03
    10b8:	90 e0       	ldi	r25, 0x00	; 0
    10ba:	6c 81       	ldd	r22, Y+4	; 0x04
    10bc:	fe 01       	movw	r30, r28
    10be:	e8 0f       	add	r30, r24
    10c0:	f9 1f       	adc	r31, r25
    10c2:	ed 58       	subi	r30, 0x8D	; 141
    10c4:	ff 4f       	sbci	r31, 0xFF	; 255
    10c6:	60 83       	st	Z, r22
						eeprom_update_byte(&eeprom_channel_data[1].maxTemp[aDataSet.index-1], channel_data[1].maxTemp[aDataSet.index-1]);
    10c8:	81 58       	subi	r24, 0x81	; 129
    10ca:	9e 4f       	sbci	r25, 0xFE	; 254
    10cc:	0e 94 ab 18 	call	0x3156	; 0x3156 <__eeupd_byte_m2560>
						break;
    10d0:	51 c1       	rjmp	.+674    	; 0x1374 <main+0xda8>
						
					case 13:							// minimum temperatures channel 2
						channel_data[2].minTemp[aDataSet.index-1] = aDataSet.data;
    10d2:	8b 81       	ldd	r24, Y+3	; 0x03
    10d4:	90 e0       	ldi	r25, 0x00	; 0
    10d6:	6c 81       	ldd	r22, Y+4	; 0x04
    10d8:	fe 01       	movw	r30, r28
    10da:	e8 0f       	add	r30, r24
    10dc:	f9 1f       	adc	r31, r25
    10de:	ef 56       	subi	r30, 0x6F	; 111
    10e0:	ff 4f       	sbci	r31, 0xFF	; 255
    10e2:	60 83       	st	Z, r22
						eeprom_update_byte(&eeprom_channel_data[2].minTemp[aDataSet.index-1], channel_data[2].minTemp[aDataSet.index-1]);
    10e4:	83 56       	subi	r24, 0x63	; 99
    10e6:	9e 4f       	sbci	r25, 0xFE	; 254
    10e8:	0e 94 ab 18 	call	0x3156	; 0x3156 <__eeupd_byte_m2560>
						break;
    10ec:	43 c1       	rjmp	.+646    	; 0x1374 <main+0xda8>
					
					case 23:							// maximum temperatures channel 2
						channel_data[2].maxTemp[aDataSet.index-1] = aDataSet.data;
    10ee:	8b 81       	ldd	r24, Y+3	; 0x03
    10f0:	90 e0       	ldi	r25, 0x00	; 0
    10f2:	6c 81       	ldd	r22, Y+4	; 0x04
    10f4:	fe 01       	movw	r30, r28
    10f6:	e8 0f       	add	r30, r24
    10f8:	f9 1f       	adc	r31, r25
    10fa:	e7 55       	subi	r30, 0x57	; 87
    10fc:	ff 4f       	sbci	r31, 0xFF	; 255
    10fe:	60 83       	st	Z, r22
						eeprom_update_byte(&eeprom_channel_data[2].maxTemp[aDataSet.index-1], channel_data[2].maxTemp[aDataSet.index-1]);
    1100:	8b 54       	subi	r24, 0x4B	; 75
    1102:	9e 4f       	sbci	r25, 0xFE	; 254
    1104:	0e 94 ab 18 	call	0x3156	; 0x3156 <__eeupd_byte_m2560>
						break;	
    1108:	35 c1       	rjmp	.+618    	; 0x1374 <main+0xda8>
						
					case 14:							// minimum temperatures channel 3
						channel_data[3].minTemp[aDataSet.index-1] = aDataSet.data;
    110a:	8b 81       	ldd	r24, Y+3	; 0x03
    110c:	90 e0       	ldi	r25, 0x00	; 0
    110e:	6c 81       	ldd	r22, Y+4	; 0x04
    1110:	fe 01       	movw	r30, r28
    1112:	e8 0f       	add	r30, r24
    1114:	f9 1f       	adc	r31, r25
    1116:	e9 53       	subi	r30, 0x39	; 57
    1118:	ff 4f       	sbci	r31, 0xFF	; 255
    111a:	60 83       	st	Z, r22
						eeprom_update_byte(&eeprom_channel_data[3].minTemp[aDataSet.index-1], channel_data[3].minTemp[aDataSet.index-1]);
    111c:	8d 52       	subi	r24, 0x2D	; 45
    111e:	9e 4f       	sbci	r25, 0xFE	; 254
    1120:	0e 94 ab 18 	call	0x3156	; 0x3156 <__eeupd_byte_m2560>
						break;
    1124:	27 c1       	rjmp	.+590    	; 0x1374 <main+0xda8>
					
					case 24:							// maximum temperatures channel 3
						channel_data[3].maxTemp[aDataSet.index-1] = aDataSet.data;
    1126:	8b 81       	ldd	r24, Y+3	; 0x03
    1128:	90 e0       	ldi	r25, 0x00	; 0
    112a:	6c 81       	ldd	r22, Y+4	; 0x04
    112c:	fe 01       	movw	r30, r28
    112e:	e8 0f       	add	r30, r24
    1130:	f9 1f       	adc	r31, r25
    1132:	e1 52       	subi	r30, 0x21	; 33
    1134:	ff 4f       	sbci	r31, 0xFF	; 255
    1136:	60 83       	st	Z, r22
						eeprom_update_byte(&eeprom_channel_data[3].maxTemp[aDataSet.index-1], channel_data[3].maxTemp[aDataSet.index-1]);
    1138:	85 51       	subi	r24, 0x15	; 21
    113a:	9e 4f       	sbci	r25, 0xFE	; 254
    113c:	0e 94 ab 18 	call	0x3156	; 0x3156 <__eeupd_byte_m2560>
						break;
    1140:	19 c1       	rjmp	.+562    	; 0x1374 <main+0xda8>
						
					case 31:							// spare temperatures
						spare_temperature[aDataSet.index-17] = aDataSet.data;
    1142:	8b 81       	ldd	r24, Y+3	; 0x03
    1144:	90 e0       	ldi	r25, 0x00	; 0
    1146:	41 97       	sbiw	r24, 0x11	; 17
    1148:	6c 81       	ldd	r22, Y+4	; 0x04
    114a:	fe 01       	movw	r30, r28
    114c:	e8 0f       	add	r30, r24
    114e:	f9 1f       	adc	r31, r25
    1150:	66 8f       	std	Z+30, r22	; 0x1e
						eeprom_update_byte(&eeprom_spare_temperature[aDataSet.index-17], spare_temperature[aDataSet.index-17]);
    1152:	86 5d       	subi	r24, 0xD6	; 214
    1154:	9e 4f       	sbci	r25, 0xFE	; 254
    1156:	0e 94 ab 18 	call	0x3156	; 0x3156 <__eeupd_byte_m2560>
						break;	
    115a:	0c c1       	rjmp	.+536    	; 0x1374 <main+0xda8>
					case 41:							// PC information
						pcStatus[aDataSet.index-1] = aDataSet.data;
						break;
					
					case 51:							// alert enable
						if (aDataSet.index == 1)
    115c:	8b 81       	ldd	r24, Y+3	; 0x03
    115e:	81 30       	cpi	r24, 0x01	; 1
    1160:	59 f4       	brne	.+22     	; 0x1178 <main+0xbac>
						{
							alert_data.overtempEnable = aDataSet.data;
    1162:	6c 81       	ldd	r22, Y+4	; 0x04
    1164:	ca 5e       	subi	r28, 0xEA	; 234
    1166:	de 4f       	sbci	r29, 0xFE	; 254
    1168:	68 83       	st	Y, r22
    116a:	c6 51       	subi	r28, 0x16	; 22
    116c:	d1 40       	sbci	r29, 0x01	; 1
							eeprom_update_byte(&eeprom_alert_data.overtempEnable, alert_data.overtempEnable);
    116e:	82 e2       	ldi	r24, 0x22	; 34
    1170:	91 e0       	ldi	r25, 0x01	; 1
    1172:	0e 94 ab 18 	call	0x3156	; 0x3156 <__eeupd_byte_m2560>
    1176:	fe c0       	rjmp	.+508    	; 0x1374 <main+0xda8>
						} 
						else if (aDataSet.index == 2)
    1178:	82 30       	cpi	r24, 0x02	; 2
    117a:	09 f0       	breq	.+2      	; 0x117e <main+0xbb2>
    117c:	bf cb       	rjmp	.-2178   	; 0x8fc <main+0x330>
						{
							alert_data.fanblockEnable = aDataSet.data;
    117e:	6c 81       	ldd	r22, Y+4	; 0x04
    1180:	c9 5e       	subi	r28, 0xE9	; 233
    1182:	de 4f       	sbci	r29, 0xFE	; 254
    1184:	68 83       	st	Y, r22
    1186:	c7 51       	subi	r28, 0x17	; 23
    1188:	d1 40       	sbci	r29, 0x01	; 1
							eeprom_update_byte(&eeprom_alert_data.fanblockEnable, alert_data.fanblockEnable);
    118a:	83 e2       	ldi	r24, 0x23	; 35
    118c:	91 e0       	ldi	r25, 0x01	; 1
    118e:	0e 94 ab 18 	call	0x3156	; 0x3156 <__eeupd_byte_m2560>
    1192:	f0 c0       	rjmp	.+480    	; 0x1374 <main+0xda8>
						}
						break;
					
						
					case 70:							// Pulse per liter of flowMeter
						if (aDataSet.index == 1)
    1194:	8b 81       	ldd	r24, Y+3	; 0x03
    1196:	81 30       	cpi	r24, 0x01	; 1
    1198:	b1 f4       	brne	.+44     	; 0x11c6 <main+0xbfa>
						{
							pulsePerLiter = aDataSet.data;
    119a:	2c 81       	ldd	r18, Y+4	; 0x04
    119c:	3d 81       	ldd	r19, Y+5	; 0x05
    119e:	c0 5b       	subi	r28, 0xB0	; 176
    11a0:	de 4f       	sbci	r29, 0xFE	; 254
    11a2:	39 83       	std	Y+1, r19	; 0x01
    11a4:	28 83       	st	Y, r18
    11a6:	c0 55       	subi	r28, 0x50	; 80
    11a8:	d1 40       	sbci	r29, 0x01	; 1
							timer_setImpulsePerLiter(pulsePerLiter);
    11aa:	c9 01       	movw	r24, r18
    11ac:	0e 94 22 18 	call	0x3044	; 0x3044 <timer_setImpulsePerLiter>
							eeprom_update_word(&eeprom_pulsePerLiter, pulsePerLiter);
    11b0:	c0 5b       	subi	r28, 0xB0	; 176
    11b2:	de 4f       	sbci	r29, 0xFE	; 254
    11b4:	68 81       	ld	r22, Y
    11b6:	79 81       	ldd	r23, Y+1	; 0x01
    11b8:	c0 55       	subi	r28, 0x50	; 80
    11ba:	d1 40       	sbci	r29, 0x01	; 1
    11bc:	80 e2       	ldi	r24, 0x20	; 32
    11be:	91 e0       	ldi	r25, 0x01	; 1
    11c0:	0e 94 bd 18 	call	0x317a	; 0x317a <__eeupd_word_m2560>
    11c4:	d7 c0       	rjmp	.+430    	; 0x1374 <main+0xda8>
						}
						else if (aDataSet.index == 2)
    11c6:	82 30       	cpi	r24, 0x02	; 2
    11c8:	09 f0       	breq	.+2      	; 0x11cc <main+0xc00>
    11ca:	98 cb       	rjmp	.-2256   	; 0x8fc <main+0x330>
						{
							alert_data.minWaterFlow = aDataSet.data;
    11cc:	6c 81       	ldd	r22, Y+4	; 0x04
    11ce:	7d 81       	ldd	r23, Y+5	; 0x05
    11d0:	c8 5e       	subi	r28, 0xE8	; 232
    11d2:	de 4f       	sbci	r29, 0xFE	; 254
    11d4:	79 83       	std	Y+1, r23	; 0x01
    11d6:	68 83       	st	Y, r22
    11d8:	c8 51       	subi	r28, 0x18	; 24
    11da:	d1 40       	sbci	r29, 0x01	; 1
							eeprom_update_word(&eeprom_alert_data.minWaterFlow, alert_data.minWaterFlow);
    11dc:	84 e2       	ldi	r24, 0x24	; 36
    11de:	91 e0       	ldi	r25, 0x01	; 1
    11e0:	0e 94 bd 18 	call	0x317a	; 0x317a <__eeupd_word_m2560>
    11e4:	c7 c0       	rjmp	.+398    	; 0x1374 <main+0xda8>
						}
						break;
					
					case 71:							// manual power
						channel_data[aDataSet.index-1].manualPower = aDataSet.data;
    11e6:	2b 81       	ldd	r18, Y+3	; 0x03
    11e8:	30 e0       	ldi	r19, 0x00	; 0
    11ea:	21 50       	subi	r18, 0x01	; 1
    11ec:	31 09       	sbc	r19, r1
    11ee:	6c 81       	ldd	r22, Y+4	; 0x04
    11f0:	46 e3       	ldi	r20, 0x36	; 54
    11f2:	42 9f       	mul	r20, r18
    11f4:	c0 01       	movw	r24, r0
    11f6:	43 9f       	mul	r20, r19
    11f8:	90 0d       	add	r25, r0
    11fa:	11 24       	eor	r1, r1
    11fc:	fe 01       	movw	r30, r28
    11fe:	e8 0f       	add	r30, r24
    1200:	f9 1f       	adc	r31, r25
    1202:	ea 5a       	subi	r30, 0xAA	; 170
    1204:	ff 4f       	sbci	r31, 0xFF	; 255
    1206:	60 83       	st	Z, r22
						eeprom_update_byte(&eeprom_channel_data[aDataSet.index-1].manualPower, channel_data[aDataSet.index-1].manualPower);
    1208:	8e 59       	subi	r24, 0x9E	; 158
    120a:	9e 4f       	sbci	r25, 0xFE	; 254
    120c:	0e 94 ab 18 	call	0x3156	; 0x3156 <__eeupd_byte_m2560>
						break;
    1210:	b1 c0       	rjmp	.+354    	; 0x1374 <main+0xda8>
						
					case 72:							// startup times
						if (aDataSet.data == 0)
    1212:	8c 81       	ldd	r24, Y+4	; 0x04
    1214:	9d 81       	ldd	r25, Y+5	; 0x05
    1216:	00 97       	sbiw	r24, 0x00	; 0
    1218:	81 f4       	brne	.+32     	; 0x123a <main+0xc6e>
						{
							channel_data[aDataSet.index-1].startupTime = 1;							
    121a:	8b 81       	ldd	r24, Y+3	; 0x03
    121c:	90 e0       	ldi	r25, 0x00	; 0
    121e:	01 97       	sbiw	r24, 0x01	; 1
    1220:	26 e3       	ldi	r18, 0x36	; 54
    1222:	28 9f       	mul	r18, r24
    1224:	f0 01       	movw	r30, r0
    1226:	29 9f       	mul	r18, r25
    1228:	f0 0d       	add	r31, r0
    122a:	11 24       	eor	r1, r1
    122c:	ec 0f       	add	r30, r28
    122e:	fd 1f       	adc	r31, r29
    1230:	e8 5a       	subi	r30, 0xA8	; 168
    1232:	ff 4f       	sbci	r31, 0xFF	; 255
    1234:	81 e0       	ldi	r24, 0x01	; 1
    1236:	80 83       	st	Z, r24
    1238:	0f c0       	rjmp	.+30     	; 0x1258 <main+0xc8c>
						} 
						else
						{
							channel_data[aDataSet.index-1].startupTime = aDataSet.data;
    123a:	2b 81       	ldd	r18, Y+3	; 0x03
    123c:	30 e0       	ldi	r19, 0x00	; 0
    123e:	21 50       	subi	r18, 0x01	; 1
    1240:	31 09       	sbc	r19, r1
    1242:	96 e3       	ldi	r25, 0x36	; 54
    1244:	92 9f       	mul	r25, r18
    1246:	f0 01       	movw	r30, r0
    1248:	93 9f       	mul	r25, r19
    124a:	f0 0d       	add	r31, r0
    124c:	11 24       	eor	r1, r1
    124e:	ec 0f       	add	r30, r28
    1250:	fd 1f       	adc	r31, r29
    1252:	e8 5a       	subi	r30, 0xA8	; 168
    1254:	ff 4f       	sbci	r31, 0xFF	; 255
    1256:	80 83       	st	Z, r24
						}
						eeprom_update_byte(&eeprom_channel_data[aDataSet.index-1].startupTime, channel_data[aDataSet.index-1].startupTime);
    1258:	2b 81       	ldd	r18, Y+3	; 0x03
    125a:	30 e0       	ldi	r19, 0x00	; 0
    125c:	21 50       	subi	r18, 0x01	; 1
    125e:	31 09       	sbc	r19, r1
    1260:	46 e3       	ldi	r20, 0x36	; 54
    1262:	42 9f       	mul	r20, r18
    1264:	c0 01       	movw	r24, r0
    1266:	43 9f       	mul	r20, r19
    1268:	90 0d       	add	r25, r0
    126a:	11 24       	eor	r1, r1
    126c:	fe 01       	movw	r30, r28
    126e:	e8 0f       	add	r30, r24
    1270:	f9 1f       	adc	r31, r25
    1272:	e8 5a       	subi	r30, 0xA8	; 168
    1274:	ff 4f       	sbci	r31, 0xFF	; 255
    1276:	60 81       	ld	r22, Z
    1278:	8c 59       	subi	r24, 0x9C	; 156
    127a:	9e 4f       	sbci	r25, 0xFE	; 254
    127c:	0e 94 ab 18 	call	0x3156	; 0x3156 <__eeupd_byte_m2560>
						break;
    1280:	79 c0       	rjmp	.+242    	; 0x1374 <main+0xda8>
					
					case 73:							// minimum power
						channel_data[aDataSet.index-1].minimumPower = aDataSet.data;
    1282:	2b 81       	ldd	r18, Y+3	; 0x03
    1284:	30 e0       	ldi	r19, 0x00	; 0
    1286:	21 50       	subi	r18, 0x01	; 1
    1288:	31 09       	sbc	r19, r1
    128a:	6c 81       	ldd	r22, Y+4	; 0x04
    128c:	46 e3       	ldi	r20, 0x36	; 54
    128e:	42 9f       	mul	r20, r18
    1290:	c0 01       	movw	r24, r0
    1292:	43 9f       	mul	r20, r19
    1294:	90 0d       	add	r25, r0
    1296:	11 24       	eor	r1, r1
    1298:	fe 01       	movw	r30, r28
    129a:	e8 0f       	add	r30, r24
    129c:	f9 1f       	adc	r31, r25
    129e:	e9 5a       	subi	r30, 0xA9	; 169
    12a0:	ff 4f       	sbci	r31, 0xFF	; 255
    12a2:	60 83       	st	Z, r22
						eeprom_update_byte(&eeprom_channel_data[aDataSet.index-1].minimumPower, channel_data[aDataSet.index-1].minimumPower);
    12a4:	8d 59       	subi	r24, 0x9D	; 157
    12a6:	9e 4f       	sbci	r25, 0xFE	; 254
    12a8:	0e 94 ab 18 	call	0x3156	; 0x3156 <__eeupd_byte_m2560>
						break;
    12ac:	63 c0       	rjmp	.+198    	; 0x1374 <main+0xda8>
						
					case 74:							// automatic mode
						channel_data[aDataSet.index-1].automaticMode = aDataSet.data;
    12ae:	2b 81       	ldd	r18, Y+3	; 0x03
    12b0:	30 e0       	ldi	r19, 0x00	; 0
    12b2:	21 50       	subi	r18, 0x01	; 1
    12b4:	31 09       	sbc	r19, r1
    12b6:	6c 81       	ldd	r22, Y+4	; 0x04
    12b8:	46 e3       	ldi	r20, 0x36	; 54
    12ba:	42 9f       	mul	r20, r18
    12bc:	c0 01       	movw	r24, r0
    12be:	43 9f       	mul	r20, r19
    12c0:	90 0d       	add	r25, r0
    12c2:	11 24       	eor	r1, r1
    12c4:	fe 01       	movw	r30, r28
    12c6:	e8 0f       	add	r30, r24
    12c8:	f9 1f       	adc	r31, r25
    12ca:	e7 5a       	subi	r30, 0xA7	; 167
    12cc:	ff 4f       	sbci	r31, 0xFF	; 255
    12ce:	60 83       	st	Z, r22
						eeprom_update_byte(&eeprom_channel_data[aDataSet.index-1].automaticMode, channel_data[aDataSet.index-1].automaticMode);
    12d0:	8b 59       	subi	r24, 0x9B	; 155
    12d2:	9e 4f       	sbci	r25, 0xFE	; 254
    12d4:	0e 94 ab 18 	call	0x3156	; 0x3156 <__eeupd_byte_m2560>
						break;
    12d8:	4d c0       	rjmp	.+154    	; 0x1374 <main+0xda8>
						
					case 75:							// stop enable
						channel_data[aDataSet.index-1].stopEnable = aDataSet.data;
    12da:	2b 81       	ldd	r18, Y+3	; 0x03
    12dc:	30 e0       	ldi	r19, 0x00	; 0
    12de:	21 50       	subi	r18, 0x01	; 1
    12e0:	31 09       	sbc	r19, r1
    12e2:	6c 81       	ldd	r22, Y+4	; 0x04
    12e4:	46 e3       	ldi	r20, 0x36	; 54
    12e6:	42 9f       	mul	r20, r18
    12e8:	c0 01       	movw	r24, r0
    12ea:	43 9f       	mul	r20, r19
    12ec:	90 0d       	add	r25, r0
    12ee:	11 24       	eor	r1, r1
    12f0:	fe 01       	movw	r30, r28
    12f2:	e8 0f       	add	r30, r24
    12f4:	f9 1f       	adc	r31, r25
    12f6:	e6 5a       	subi	r30, 0xA6	; 166
    12f8:	ff 4f       	sbci	r31, 0xFF	; 255
    12fa:	60 83       	st	Z, r22
						eeprom_update_byte(&eeprom_channel_data[aDataSet.index-1].stopEnable, channel_data[aDataSet.index-1].stopEnable);
    12fc:	8a 59       	subi	r24, 0x9A	; 154
    12fe:	9e 4f       	sbci	r25, 0xFE	; 254
    1300:	0e 94 ab 18 	call	0x3156	; 0x3156 <__eeupd_byte_m2560>
						break;
    1304:	37 c0       	rjmp	.+110    	; 0x1374 <main+0xda8>
						
					case 76:							// threshold
						channel_data[aDataSet.index-1].threshold = aDataSet.data;
    1306:	2b 81       	ldd	r18, Y+3	; 0x03
    1308:	30 e0       	ldi	r19, 0x00	; 0
    130a:	21 50       	subi	r18, 0x01	; 1
    130c:	31 09       	sbc	r19, r1
    130e:	6c 81       	ldd	r22, Y+4	; 0x04
    1310:	46 e3       	ldi	r20, 0x36	; 54
    1312:	42 9f       	mul	r20, r18
    1314:	c0 01       	movw	r24, r0
    1316:	43 9f       	mul	r20, r19
    1318:	90 0d       	add	r25, r0
    131a:	11 24       	eor	r1, r1
    131c:	fe 01       	movw	r30, r28
    131e:	e8 0f       	add	r30, r24
    1320:	f9 1f       	adc	r31, r25
    1322:	e5 5a       	subi	r30, 0xA5	; 165
    1324:	ff 4f       	sbci	r31, 0xFF	; 255
    1326:	60 83       	st	Z, r22
						eeprom_update_byte(&eeprom_channel_data[aDataSet.index-1].threshold, channel_data[aDataSet.index-1].threshold);
    1328:	89 59       	subi	r24, 0x99	; 153
    132a:	9e 4f       	sbci	r25, 0xFE	; 254
    132c:	0e 94 ab 18 	call	0x3156	; 0x3156 <__eeupd_byte_m2560>
						break;
    1330:	21 c0       	rjmp	.+66     	; 0x1374 <main+0xda8>
							//eeprom_update_byte(&eeprom_alphaDisplay.contrast, alphaDisplay.contrast);
						//}
						break;
					
					case 78:							// led mode
						led_data.mode = aDataSet.data;
    1332:	6c 81       	ldd	r22, Y+4	; 0x04
    1334:	ce 5e       	subi	r28, 0xEE	; 238
    1336:	de 4f       	sbci	r29, 0xFE	; 254
    1338:	68 83       	st	Y, r22
    133a:	c2 51       	subi	r28, 0x12	; 18
    133c:	d1 40       	sbci	r29, 0x01	; 1
						eeprom_update_byte(&eeprom_led_data.mode, led_data.mode);
    133e:	86 e2       	ldi	r24, 0x26	; 38
    1340:	91 e0       	ldi	r25, 0x01	; 1
    1342:	0e 94 ab 18 	call	0x3156	; 0x3156 <__eeupd_byte_m2560>
						ledCtr = 0;
    1346:	c2 5d       	subi	r28, 0xD2	; 210
    1348:	de 4f       	sbci	r29, 0xFE	; 254
    134a:	19 82       	std	Y+1, r1	; 0x01
    134c:	18 82       	st	Y, r1
    134e:	ce 52       	subi	r28, 0x2E	; 46
    1350:	d1 40       	sbci	r29, 0x01	; 1
						break;
    1352:	10 c0       	rjmp	.+32     	; 0x1374 <main+0xda8>
						
					case 79:							// led manual power
						led_data.manualPower[aDataSet.index-1] = aDataSet.data;
    1354:	8b 81       	ldd	r24, Y+3	; 0x03
    1356:	90 e0       	ldi	r25, 0x00	; 0
    1358:	fc 01       	movw	r30, r24
    135a:	31 97       	sbiw	r30, 0x01	; 1
    135c:	6c 81       	ldd	r22, Y+4	; 0x04
    135e:	a2 e1       	ldi	r26, 0x12	; 18
    1360:	b1 e0       	ldi	r27, 0x01	; 1
    1362:	ac 0f       	add	r26, r28
    1364:	bd 1f       	adc	r27, r29
    1366:	ea 0f       	add	r30, r26
    1368:	fb 1f       	adc	r31, r27
    136a:	61 83       	std	Z+1, r22	; 0x01
						eeprom_update_byte(&eeprom_led_data.manualPower[aDataSet.index-1], led_data.manualPower[aDataSet.index-1]);
    136c:	8a 5d       	subi	r24, 0xDA	; 218
    136e:	9e 4f       	sbci	r25, 0xFE	; 254
    1370:	0e 94 ab 18 	call	0x3156	; 0x3156 <__eeupd_byte_m2560>
						//eeprom_update_byte(&eeprom_alphaDisplay.screen[aDataSet.index-1], alphaDisplay.screen[aDataSet.index-1]);
						break;												
				}				
			}
			
			if (aDataSet.dA == SERIALPORT_ASK)			// new ask
    1374:	89 81       	ldd	r24, Y+1	; 0x01
    1376:	81 30       	cpi	r24, 0x01	; 1
    1378:	09 f0       	breq	.+2      	; 0x137c <main+0xdb0>
    137a:	c0 ca       	rjmp	.-2688   	; 0x8fc <main+0x330>
			{
				aDataSet.dA = SERIALPORT_DATA;			// return always data
    137c:	19 82       	std	Y+1, r1	; 0x01
				switch(aDataSet.id)
    137e:	ea 81       	ldd	r30, Y+2	; 0x02
    1380:	f0 e0       	ldi	r31, 0x00	; 0
    1382:	e0 35       	cpi	r30, 0x50	; 80
    1384:	f1 05       	cpc	r31, r1
    1386:	08 f0       	brcs	.+2      	; 0x138a <main+0xdbe>
    1388:	b9 ca       	rjmp	.-2702   	; 0x8fc <main+0x330>
    138a:	ef 53       	subi	r30, 0x3F	; 63
    138c:	ff 4f       	sbci	r31, 0xFF	; 255
    138e:	0c 94 70 18 	jmp	0x30e0	; 0x30e0 <__tablejump2__>
				{
					case 0:								// ask for everything
						aDataSet.id = 02;
    1392:	12 e0       	ldi	r17, 0x02	; 2
    1394:	1a 83       	std	Y+2, r17	; 0x02
						aDataSet.index = 1;
    1396:	81 e0       	ldi	r24, 0x01	; 1
    1398:	8b 83       	std	Y+3, r24	; 0x03
						aDataSet.data = FIRMWAREVERSION;
    139a:	85 e0       	ldi	r24, 0x05	; 5
    139c:	90 e0       	ldi	r25, 0x00	; 0
    139e:	9d 83       	std	Y+5, r25	; 0x05
    13a0:	8c 83       	std	Y+4, r24	; 0x04
						serialport_writeCarriage(&aDataSet);
    13a2:	ce 01       	movw	r24, r28
    13a4:	01 96       	adiw	r24, 0x01	; 1
    13a6:	0e 94 0d 12 	call	0x241a	; 0x241a <serialport_writeCarriage>
						aDataSet.index = 2;
    13aa:	1b 83       	std	Y+3, r17	; 0x03
						aDataSet.data = EEPROMVERSION;
    13ac:	81 e0       	ldi	r24, 0x01	; 1
    13ae:	90 e0       	ldi	r25, 0x00	; 0
    13b0:	9d 83       	std	Y+5, r25	; 0x05
    13b2:	8c 83       	std	Y+4, r24	; 0x04
						serialport_writeCarriage(&aDataSet);
    13b4:	ce 01       	movw	r24, r28
    13b6:	01 96       	adiw	r24, 0x01	; 1
    13b8:	0e 94 0d 12 	call	0x241a	; 0x241a <serialport_writeCarriage>
    13bc:	0f 2e       	mov	r0, r31
    13be:	f6 e2       	ldi	r31, 0x26	; 38
    13c0:	af 2e       	mov	r10, r31
    13c2:	b1 2c       	mov	r11, r1
    13c4:	f0 2d       	mov	r31, r0
    13c6:	ac 0e       	add	r10, r28
    13c8:	bd 1e       	adc	r11, r29
    13ca:	6e 01       	movw	r12, r28
    13cc:	be e3       	ldi	r27, 0x3E	; 62
    13ce:	cb 0e       	add	r12, r27
    13d0:	d1 1c       	adc	r13, r1
    13d2:	75 01       	movw	r14, r10
    13d4:	e6 e3       	ldi	r30, 0x36	; 54
    13d6:	ee 0e       	add	r14, r30
    13d8:	f1 1c       	adc	r15, r1
    13da:	9e 01       	movw	r18, r28
    13dc:	2c 58       	subi	r18, 0x8C	; 140
    13de:	3f 4f       	sbci	r19, 0xFF	; 255
    13e0:	c2 5e       	subi	r28, 0xE2	; 226
    13e2:	de 4f       	sbci	r29, 0xFE	; 254
    13e4:	39 83       	std	Y+1, r19	; 0x01
    13e6:	28 83       	st	Y, r18
    13e8:	ce 51       	subi	r28, 0x1E	; 30
    13ea:	d1 40       	sbci	r29, 0x01	; 1
    13ec:	4e 01       	movw	r8, r28
    13ee:	32 e9       	ldi	r19, 0x92	; 146
    13f0:	83 0e       	add	r8, r19
    13f2:	91 1c       	adc	r9, r1
    13f4:	3e 01       	movw	r6, r28
    13f6:	4a ea       	ldi	r20, 0xAA	; 170
    13f8:	64 0e       	add	r6, r20
    13fa:	71 1c       	adc	r7, r1
    13fc:	2e 01       	movw	r4, r28
    13fe:	88 ec       	ldi	r24, 0xC8	; 200
    1400:	48 0e       	add	r4, r24
    1402:	51 1c       	adc	r5, r1
    1404:	1e 01       	movw	r2, r28
    1406:	90 ee       	ldi	r25, 0xE0	; 224
    1408:	29 0e       	add	r2, r25
    140a:	31 1c       	adc	r3, r1
						for (i=0;i<24;i++)
    140c:	10 e0       	ldi	r17, 0x00	; 0
							aDataSet.data = channel_data[2].maxTemp[i];
							serialport_writeCarriage(&aDataSet);
							aDataSet.id = 14;			// 14
							aDataSet.data = channel_data[3].minTemp[i];
							serialport_writeCarriage(&aDataSet);
							aDataSet.id = 24;			// 24
    140e:	08 e1       	ldi	r16, 0x18	; 24
						aDataSet.index = 2;
						aDataSet.data = EEPROMVERSION;
						serialport_writeCarriage(&aDataSet);
						for (i=0;i<24;i++)
						{
							aDataSet.id = 11;			// 11
    1410:	ab e0       	ldi	r26, 0x0B	; 11
    1412:	aa 83       	std	Y+2, r26	; 0x02
							aDataSet.index = i+1;
    1414:	1f 5f       	subi	r17, 0xFF	; 255
    1416:	1b 83       	std	Y+3, r17	; 0x03
							aDataSet.data = channel_data[0].minTemp[i];
    1418:	f5 01       	movw	r30, r10
    141a:	81 91       	ld	r24, Z+
    141c:	5f 01       	movw	r10, r30
    141e:	8c 83       	std	Y+4, r24	; 0x04
    1420:	1d 82       	std	Y+5, r1	; 0x05
							serialport_writeCarriage(&aDataSet);
    1422:	ce 01       	movw	r24, r28
    1424:	01 96       	adiw	r24, 0x01	; 1
    1426:	f9 d7       	rcall	.+4082   	; 0x241a <serialport_writeCarriage>
							aDataSet.id = 21;			// 21
    1428:	f5 e1       	ldi	r31, 0x15	; 21
    142a:	fa 83       	std	Y+2, r31	; 0x02
							aDataSet.data = channel_data[0].maxTemp[i];
    142c:	d6 01       	movw	r26, r12
    142e:	8d 91       	ld	r24, X+
    1430:	6d 01       	movw	r12, r26
    1432:	8c 83       	std	Y+4, r24	; 0x04
    1434:	1d 82       	std	Y+5, r1	; 0x05
							serialport_writeCarriage(&aDataSet);
    1436:	ce 01       	movw	r24, r28
    1438:	01 96       	adiw	r24, 0x01	; 1
    143a:	ef d7       	rcall	.+4062   	; 0x241a <serialport_writeCarriage>
							aDataSet.id = 12;			// 12
    143c:	bc e0       	ldi	r27, 0x0C	; 12
    143e:	ba 83       	std	Y+2, r27	; 0x02
							aDataSet.data = channel_data[1].minTemp[i];
    1440:	f7 01       	movw	r30, r14
    1442:	81 91       	ld	r24, Z+
    1444:	7f 01       	movw	r14, r30
    1446:	8c 83       	std	Y+4, r24	; 0x04
    1448:	1d 82       	std	Y+5, r1	; 0x05
							serialport_writeCarriage(&aDataSet);
    144a:	ce 01       	movw	r24, r28
    144c:	01 96       	adiw	r24, 0x01	; 1
    144e:	e5 d7       	rcall	.+4042   	; 0x241a <serialport_writeCarriage>
							aDataSet.id = 22;			// 22
    1450:	f6 e1       	ldi	r31, 0x16	; 22
    1452:	fa 83       	std	Y+2, r31	; 0x02
							aDataSet.data = channel_data[1].maxTemp[i];
    1454:	c2 5e       	subi	r28, 0xE2	; 226
    1456:	de 4f       	sbci	r29, 0xFE	; 254
    1458:	a8 81       	ld	r26, Y
    145a:	b9 81       	ldd	r27, Y+1	; 0x01
    145c:	ce 51       	subi	r28, 0x1E	; 30
    145e:	d1 40       	sbci	r29, 0x01	; 1
    1460:	8d 91       	ld	r24, X+
    1462:	c2 5e       	subi	r28, 0xE2	; 226
    1464:	de 4f       	sbci	r29, 0xFE	; 254
    1466:	b9 83       	std	Y+1, r27	; 0x01
    1468:	a8 83       	st	Y, r26
    146a:	ce 51       	subi	r28, 0x1E	; 30
    146c:	d1 40       	sbci	r29, 0x01	; 1
    146e:	8c 83       	std	Y+4, r24	; 0x04
    1470:	1d 82       	std	Y+5, r1	; 0x05
							serialport_writeCarriage(&aDataSet);
    1472:	ce 01       	movw	r24, r28
    1474:	01 96       	adiw	r24, 0x01	; 1
    1476:	d1 d7       	rcall	.+4002   	; 0x241a <serialport_writeCarriage>
							aDataSet.id = 13;			// 13
    1478:	bd e0       	ldi	r27, 0x0D	; 13
    147a:	ba 83       	std	Y+2, r27	; 0x02
							aDataSet.data = channel_data[2].minTemp[i];
    147c:	f4 01       	movw	r30, r8
    147e:	81 91       	ld	r24, Z+
    1480:	4f 01       	movw	r8, r30
    1482:	8c 83       	std	Y+4, r24	; 0x04
    1484:	1d 82       	std	Y+5, r1	; 0x05
							serialport_writeCarriage(&aDataSet);
    1486:	ce 01       	movw	r24, r28
    1488:	01 96       	adiw	r24, 0x01	; 1
    148a:	c7 d7       	rcall	.+3982   	; 0x241a <serialport_writeCarriage>
							aDataSet.id = 23;			// 23
    148c:	f7 e1       	ldi	r31, 0x17	; 23
    148e:	fa 83       	std	Y+2, r31	; 0x02
							aDataSet.data = channel_data[2].maxTemp[i];
    1490:	d3 01       	movw	r26, r6
    1492:	8d 91       	ld	r24, X+
    1494:	3d 01       	movw	r6, r26
    1496:	8c 83       	std	Y+4, r24	; 0x04
    1498:	1d 82       	std	Y+5, r1	; 0x05
							serialport_writeCarriage(&aDataSet);
    149a:	ce 01       	movw	r24, r28
    149c:	01 96       	adiw	r24, 0x01	; 1
    149e:	bd d7       	rcall	.+3962   	; 0x241a <serialport_writeCarriage>
							aDataSet.id = 14;			// 14
    14a0:	be e0       	ldi	r27, 0x0E	; 14
    14a2:	ba 83       	std	Y+2, r27	; 0x02
							aDataSet.data = channel_data[3].minTemp[i];
    14a4:	f2 01       	movw	r30, r4
    14a6:	81 91       	ld	r24, Z+
    14a8:	2f 01       	movw	r4, r30
    14aa:	8c 83       	std	Y+4, r24	; 0x04
    14ac:	1d 82       	std	Y+5, r1	; 0x05
							serialport_writeCarriage(&aDataSet);
    14ae:	ce 01       	movw	r24, r28
    14b0:	01 96       	adiw	r24, 0x01	; 1
    14b2:	b3 d7       	rcall	.+3942   	; 0x241a <serialport_writeCarriage>
							aDataSet.id = 24;			// 24
    14b4:	0a 83       	std	Y+2, r16	; 0x02
							aDataSet.data = channel_data[3].maxTemp[i];
    14b6:	d1 01       	movw	r26, r2
    14b8:	8d 91       	ld	r24, X+
    14ba:	1d 01       	movw	r2, r26
    14bc:	8c 83       	std	Y+4, r24	; 0x04
    14be:	1d 82       	std	Y+5, r1	; 0x05
							serialport_writeCarriage(&aDataSet);							
    14c0:	ce 01       	movw	r24, r28
    14c2:	01 96       	adiw	r24, 0x01	; 1
    14c4:	aa d7       	rcall	.+3924   	; 0x241a <serialport_writeCarriage>
						aDataSet.data = FIRMWAREVERSION;
						serialport_writeCarriage(&aDataSet);
						aDataSet.index = 2;
						aDataSet.data = EEPROMVERSION;
						serialport_writeCarriage(&aDataSet);
						for (i=0;i<24;i++)
    14c6:	18 31       	cpi	r17, 0x18	; 24
    14c8:	09 f0       	breq	.+2      	; 0x14cc <main+0xf00>
    14ca:	a2 cf       	rjmp	.-188    	; 0x1410 <main+0xe44>
							serialport_writeCarriage(&aDataSet);
							aDataSet.id = 24;			// 24
							aDataSet.data = channel_data[3].maxTemp[i];
							serialport_writeCarriage(&aDataSet);							
						}
						aDataSet.id = 31;				// 31
    14cc:	8f e1       	ldi	r24, 0x1F	; 31
    14ce:	8a 83       	std	Y+2, r24	; 0x02
    14d0:	8e 01       	movw	r16, r28
    14d2:	02 5e       	subi	r16, 0xE2	; 226
    14d4:	1f 4f       	sbci	r17, 0xFF	; 255
    14d6:	0f 2e       	mov	r0, r31
    14d8:	f1 e1       	ldi	r31, 0x11	; 17
    14da:	ff 2e       	mov	r15, r31
    14dc:	f0 2d       	mov	r31, r0
						for (i=0;i<8;i++)
						{
							aDataSet.index = i+17;
    14de:	fb 82       	std	Y+3, r15	; 0x03
							aDataSet.data = spare_temperature[i];
    14e0:	f8 01       	movw	r30, r16
    14e2:	81 91       	ld	r24, Z+
    14e4:	8f 01       	movw	r16, r30
    14e6:	8c 83       	std	Y+4, r24	; 0x04
    14e8:	1d 82       	std	Y+5, r1	; 0x05
							serialport_writeCarriage(&aDataSet);
    14ea:	ce 01       	movw	r24, r28
    14ec:	01 96       	adiw	r24, 0x01	; 1
    14ee:	95 d7       	rcall	.+3882   	; 0x241a <serialport_writeCarriage>
    14f0:	f3 94       	inc	r15
							aDataSet.id = 24;			// 24
							aDataSet.data = channel_data[3].maxTemp[i];
							serialport_writeCarriage(&aDataSet);							
						}
						aDataSet.id = 31;				// 31
						for (i=0;i<8;i++)
    14f2:	f9 e1       	ldi	r31, 0x19	; 25
    14f4:	ff 12       	cpse	r15, r31
    14f6:	f3 cf       	rjmp	.-26     	; 0x14de <main+0xf12>
						{
							aDataSet.index = i+17;
							aDataSet.data = spare_temperature[i];
							serialport_writeCarriage(&aDataSet);
						}						
						aDataSet.id = 32;				// 32
    14f8:	80 e2       	ldi	r24, 0x20	; 32
    14fa:	8a 83       	std	Y+2, r24	; 0x02
						aDataSet.index = 1;
    14fc:	81 e0       	ldi	r24, 0x01	; 1
    14fe:	8b 83       	std	Y+3, r24	; 0x03
						aDataSet.data = tempSensor_getOneWireAmount();
    1500:	0e 94 9a 15 	call	0x2b34	; 0x2b34 <tempSensor_getOneWireAmount>
    1504:	8c 83       	std	Y+4, r24	; 0x04
    1506:	1d 82       	std	Y+5, r1	; 0x05
						serialport_writeCarriage(&aDataSet);												
    1508:	ce 01       	movw	r24, r28
    150a:	01 96       	adiw	r24, 0x01	; 1
    150c:	86 d7       	rcall	.+3852   	; 0x241a <serialport_writeCarriage>
						aDataSet.id = 33;				// 33
    150e:	81 e2       	ldi	r24, 0x21	; 33
    1510:	8a 83       	std	Y+2, r24	; 0x02
						for (i=0;i<(8*tempSensor_getOneWireAmount());i++)
    1512:	10 e0       	ldi	r17, 0x00	; 0
    1514:	0c c0       	rjmp	.+24     	; 0x152e <main+0xf62>
						{
							aDataSet.index = i+1;
    1516:	01 2f       	mov	r16, r17
    1518:	0f 5f       	subi	r16, 0xFF	; 255
    151a:	0b 83       	std	Y+3, r16	; 0x03
							aDataSet.data = tempSensor_getOneWireID(i);
    151c:	81 2f       	mov	r24, r17
    151e:	0e 94 9d 15 	call	0x2b3a	; 0x2b3a <tempSensor_getOneWireID>
    1522:	8c 83       	std	Y+4, r24	; 0x04
    1524:	1d 82       	std	Y+5, r1	; 0x05
							serialport_writeCarriage(&aDataSet);
    1526:	ce 01       	movw	r24, r28
    1528:	01 96       	adiw	r24, 0x01	; 1
    152a:	77 d7       	rcall	.+3822   	; 0x241a <serialport_writeCarriage>
						aDataSet.id = 32;				// 32
						aDataSet.index = 1;
						aDataSet.data = tempSensor_getOneWireAmount();
						serialport_writeCarriage(&aDataSet);												
						aDataSet.id = 33;				// 33
						for (i=0;i<(8*tempSensor_getOneWireAmount());i++)
    152c:	10 2f       	mov	r17, r16
    152e:	0e 94 9a 15 	call	0x2b34	; 0x2b34 <tempSensor_getOneWireAmount>
    1532:	21 2f       	mov	r18, r17
    1534:	30 e0       	ldi	r19, 0x00	; 0
    1536:	48 e0       	ldi	r20, 0x08	; 8
    1538:	84 9f       	mul	r24, r20
    153a:	c0 01       	movw	r24, r0
    153c:	11 24       	eor	r1, r1
    153e:	28 17       	cp	r18, r24
    1540:	39 07       	cpc	r19, r25
    1542:	4c f3       	brlt	.-46     	; 0x1516 <main+0xf4a>
						{
							aDataSet.index = i+1;
							aDataSet.data = tempSensor_getOneWireID(i);
							serialport_writeCarriage(&aDataSet);
						}						
						aDataSet.id = 51;				// 51
    1544:	83 e3       	ldi	r24, 0x33	; 51
    1546:	8a 83       	std	Y+2, r24	; 0x02
						aDataSet.index = 1;
    1548:	01 e0       	ldi	r16, 0x01	; 1
    154a:	0b 83       	std	Y+3, r16	; 0x03
						aDataSet.data = alert_data.overtempEnable;
    154c:	ca 5e       	subi	r28, 0xEA	; 234
    154e:	de 4f       	sbci	r29, 0xFE	; 254
    1550:	88 81       	ld	r24, Y
    1552:	c6 51       	subi	r28, 0x16	; 22
    1554:	d1 40       	sbci	r29, 0x01	; 1
    1556:	8c 83       	std	Y+4, r24	; 0x04
    1558:	1d 82       	std	Y+5, r1	; 0x05
						serialport_writeCarriage(&aDataSet);
    155a:	ce 01       	movw	r24, r28
    155c:	01 96       	adiw	r24, 0x01	; 1
    155e:	5d d7       	rcall	.+3770   	; 0x241a <serialport_writeCarriage>
						aDataSet.index = 2;
    1560:	12 e0       	ldi	r17, 0x02	; 2
    1562:	1b 83       	std	Y+3, r17	; 0x03
						aDataSet.data = alert_data.fanblockEnable;
    1564:	c9 5e       	subi	r28, 0xE9	; 233
    1566:	de 4f       	sbci	r29, 0xFE	; 254
    1568:	88 81       	ld	r24, Y
    156a:	c7 51       	subi	r28, 0x17	; 23
    156c:	d1 40       	sbci	r29, 0x01	; 1
    156e:	8c 83       	std	Y+4, r24	; 0x04
    1570:	1d 82       	std	Y+5, r1	; 0x05
						serialport_writeCarriage(&aDataSet);
    1572:	ce 01       	movw	r24, r28
    1574:	01 96       	adiw	r24, 0x01	; 1
    1576:	51 d7       	rcall	.+3746   	; 0x241a <serialport_writeCarriage>
						aDataSet.id = 70;				// 70
    1578:	86 e4       	ldi	r24, 0x46	; 70
    157a:	8a 83       	std	Y+2, r24	; 0x02
						aDataSet.index = 1;
    157c:	0b 83       	std	Y+3, r16	; 0x03
						aDataSet.data = pulsePerLiter;
    157e:	c0 5b       	subi	r28, 0xB0	; 176
    1580:	de 4f       	sbci	r29, 0xFE	; 254
    1582:	88 81       	ld	r24, Y
    1584:	99 81       	ldd	r25, Y+1	; 0x01
    1586:	c0 55       	subi	r28, 0x50	; 80
    1588:	d1 40       	sbci	r29, 0x01	; 1
    158a:	9d 83       	std	Y+5, r25	; 0x05
    158c:	8c 83       	std	Y+4, r24	; 0x04
						serialport_writeCarriage(&aDataSet);
    158e:	ce 01       	movw	r24, r28
    1590:	01 96       	adiw	r24, 0x01	; 1
    1592:	43 d7       	rcall	.+3718   	; 0x241a <serialport_writeCarriage>
						aDataSet.index = 2;
    1594:	1b 83       	std	Y+3, r17	; 0x03
						aDataSet.data = alert_data.minWaterFlow;
    1596:	c8 5e       	subi	r28, 0xE8	; 232
    1598:	de 4f       	sbci	r29, 0xFE	; 254
    159a:	88 81       	ld	r24, Y
    159c:	99 81       	ldd	r25, Y+1	; 0x01
    159e:	c8 51       	subi	r28, 0x18	; 24
    15a0:	d1 40       	sbci	r29, 0x01	; 1
    15a2:	9d 83       	std	Y+5, r25	; 0x05
    15a4:	8c 83       	std	Y+4, r24	; 0x04
						serialport_writeCarriage(&aDataSet);
    15a6:	ce 01       	movw	r24, r28
    15a8:	01 96       	adiw	r24, 0x01	; 1
    15aa:	37 d7       	rcall	.+3694   	; 0x241a <serialport_writeCarriage>
						for (i=0;i<4;i++)
    15ac:	10 e0       	ldi	r17, 0x00	; 0
						{
							aDataSet.id = 71;				// 71
    15ae:	0f 2e       	mov	r0, r31
    15b0:	f7 e4       	ldi	r31, 0x47	; 71
    15b2:	bf 2e       	mov	r11, r31
    15b4:	f0 2d       	mov	r31, r0
							aDataSet.index = i+1;
							aDataSet.data = channel_data[i].manualPower;
							serialport_writeCarriage(&aDataSet);
							aDataSet.id = 72;				// 72
    15b6:	0f 2e       	mov	r0, r31
    15b8:	f8 e4       	ldi	r31, 0x48	; 72
    15ba:	cf 2e       	mov	r12, r31
    15bc:	f0 2d       	mov	r31, r0
							aDataSet.data = channel_data[i].startupTime;
							serialport_writeCarriage(&aDataSet);
							aDataSet.id = 73;				// 73
    15be:	0f 2e       	mov	r0, r31
    15c0:	f9 e4       	ldi	r31, 0x49	; 73
    15c2:	df 2e       	mov	r13, r31
    15c4:	f0 2d       	mov	r31, r0
							aDataSet.data = channel_data[i].minimumPower;
							serialport_writeCarriage(&aDataSet);
							aDataSet.id = 74;				// 74
    15c6:	0f 2e       	mov	r0, r31
    15c8:	fa e4       	ldi	r31, 0x4A	; 74
    15ca:	ef 2e       	mov	r14, r31
    15cc:	f0 2d       	mov	r31, r0
							aDataSet.data = channel_data[i].automaticMode;
							serialport_writeCarriage(&aDataSet);
							aDataSet.id = 75;				// 75
    15ce:	0f 2e       	mov	r0, r31
    15d0:	fb e4       	ldi	r31, 0x4B	; 75
    15d2:	ff 2e       	mov	r15, r31
    15d4:	f0 2d       	mov	r31, r0
							aDataSet.data = channel_data[i].stopEnable;
							serialport_writeCarriage(&aDataSet);
							aDataSet.id = 76;				// 76
    15d6:	0c e4       	ldi	r16, 0x4C	; 76
    15d8:	c2 5c       	subi	r28, 0xC2	; 194
    15da:	de 4f       	sbci	r29, 0xFE	; 254
    15dc:	88 80       	ld	r8, Y
    15de:	99 80       	ldd	r9, Y+1	; 0x01
    15e0:	ce 53       	subi	r28, 0x3E	; 62
    15e2:	d1 40       	sbci	r29, 0x01	; 1
						aDataSet.index = 2;
						aDataSet.data = alert_data.minWaterFlow;
						serialport_writeCarriage(&aDataSet);
						for (i=0;i<4;i++)
						{
							aDataSet.id = 71;				// 71
    15e4:	ba 82       	std	Y+2, r11	; 0x02
							aDataSet.index = i+1;
    15e6:	1f 5f       	subi	r17, 0xFF	; 255
    15e8:	1b 83       	std	Y+3, r17	; 0x03
#include "Timer.h"
#include "TempSensor.h"
#include "EEPROM_data.h"


int main(void)
    15ea:	f4 01       	movw	r30, r8
    15ec:	35 97       	sbiw	r30, 0x05	; 5
						serialport_writeCarriage(&aDataSet);
						for (i=0;i<4;i++)
						{
							aDataSet.id = 71;				// 71
							aDataSet.index = i+1;
							aDataSet.data = channel_data[i].manualPower;
    15ee:	80 81       	ld	r24, Z
    15f0:	8c 83       	std	Y+4, r24	; 0x04
    15f2:	1d 82       	std	Y+5, r1	; 0x05
							serialport_writeCarriage(&aDataSet);
    15f4:	ce 01       	movw	r24, r28
    15f6:	01 96       	adiw	r24, 0x01	; 1
    15f8:	10 d7       	rcall	.+3616   	; 0x241a <serialport_writeCarriage>
							aDataSet.id = 72;				// 72
    15fa:	ca 82       	std	Y+2, r12	; 0x02
#include "Timer.h"
#include "TempSensor.h"
#include "EEPROM_data.h"


int main(void)
    15fc:	f4 01       	movw	r30, r8
    15fe:	33 97       	sbiw	r30, 0x03	; 3
							aDataSet.id = 71;				// 71
							aDataSet.index = i+1;
							aDataSet.data = channel_data[i].manualPower;
							serialport_writeCarriage(&aDataSet);
							aDataSet.id = 72;				// 72
							aDataSet.data = channel_data[i].startupTime;
    1600:	80 81       	ld	r24, Z
    1602:	8c 83       	std	Y+4, r24	; 0x04
    1604:	1d 82       	std	Y+5, r1	; 0x05
							serialport_writeCarriage(&aDataSet);
    1606:	ce 01       	movw	r24, r28
    1608:	01 96       	adiw	r24, 0x01	; 1
    160a:	07 d7       	rcall	.+3598   	; 0x241a <serialport_writeCarriage>
							aDataSet.id = 73;				// 73
    160c:	da 82       	std	Y+2, r13	; 0x02
#include "Timer.h"
#include "TempSensor.h"
#include "EEPROM_data.h"


int main(void)
    160e:	f4 01       	movw	r30, r8
    1610:	34 97       	sbiw	r30, 0x04	; 4
							serialport_writeCarriage(&aDataSet);
							aDataSet.id = 72;				// 72
							aDataSet.data = channel_data[i].startupTime;
							serialport_writeCarriage(&aDataSet);
							aDataSet.id = 73;				// 73
							aDataSet.data = channel_data[i].minimumPower;
    1612:	80 81       	ld	r24, Z
    1614:	8c 83       	std	Y+4, r24	; 0x04
    1616:	1d 82       	std	Y+5, r1	; 0x05
							serialport_writeCarriage(&aDataSet);
    1618:	ce 01       	movw	r24, r28
    161a:	01 96       	adiw	r24, 0x01	; 1
    161c:	fe d6       	rcall	.+3580   	; 0x241a <serialport_writeCarriage>
							aDataSet.id = 74;				// 74
    161e:	ea 82       	std	Y+2, r14	; 0x02
#include "Timer.h"
#include "TempSensor.h"
#include "EEPROM_data.h"


int main(void)
    1620:	f4 01       	movw	r30, r8
    1622:	32 97       	sbiw	r30, 0x02	; 2
							serialport_writeCarriage(&aDataSet);
							aDataSet.id = 73;				// 73
							aDataSet.data = channel_data[i].minimumPower;
							serialport_writeCarriage(&aDataSet);
							aDataSet.id = 74;				// 74
							aDataSet.data = channel_data[i].automaticMode;
    1624:	80 81       	ld	r24, Z
    1626:	8c 83       	std	Y+4, r24	; 0x04
    1628:	1d 82       	std	Y+5, r1	; 0x05
							serialport_writeCarriage(&aDataSet);
    162a:	ce 01       	movw	r24, r28
    162c:	01 96       	adiw	r24, 0x01	; 1
    162e:	f5 d6       	rcall	.+3562   	; 0x241a <serialport_writeCarriage>
							aDataSet.id = 75;				// 75
    1630:	fa 82       	std	Y+2, r15	; 0x02
#include "Timer.h"
#include "TempSensor.h"
#include "EEPROM_data.h"


int main(void)
    1632:	f4 01       	movw	r30, r8
    1634:	31 97       	sbiw	r30, 0x01	; 1
							serialport_writeCarriage(&aDataSet);
							aDataSet.id = 74;				// 74
							aDataSet.data = channel_data[i].automaticMode;
							serialport_writeCarriage(&aDataSet);
							aDataSet.id = 75;				// 75
							aDataSet.data = channel_data[i].stopEnable;
    1636:	80 81       	ld	r24, Z
    1638:	8c 83       	std	Y+4, r24	; 0x04
    163a:	1d 82       	std	Y+5, r1	; 0x05
							serialport_writeCarriage(&aDataSet);
    163c:	ce 01       	movw	r24, r28
    163e:	01 96       	adiw	r24, 0x01	; 1
    1640:	ec d6       	rcall	.+3544   	; 0x241a <serialport_writeCarriage>
							aDataSet.id = 76;				// 76
    1642:	0a 83       	std	Y+2, r16	; 0x02
							aDataSet.data = channel_data[i].threshold;
    1644:	d4 01       	movw	r26, r8
    1646:	8c 91       	ld	r24, X
    1648:	8c 83       	std	Y+4, r24	; 0x04
    164a:	1d 82       	std	Y+5, r1	; 0x05
							serialport_writeCarriage(&aDataSet);							
    164c:	ce 01       	movw	r24, r28
    164e:	01 96       	adiw	r24, 0x01	; 1
    1650:	e4 d6       	rcall	.+3528   	; 0x241a <serialport_writeCarriage>
    1652:	b6 e3       	ldi	r27, 0x36	; 54
    1654:	8b 0e       	add	r8, r27
    1656:	91 1c       	adc	r9, r1
						aDataSet.data = pulsePerLiter;
						serialport_writeCarriage(&aDataSet);
						aDataSet.index = 2;
						aDataSet.data = alert_data.minWaterFlow;
						serialport_writeCarriage(&aDataSet);
						for (i=0;i<4;i++)
    1658:	14 30       	cpi	r17, 0x04	; 4
    165a:	09 f0       	breq	.+2      	; 0x165e <main+0x1092>
    165c:	c3 cf       	rjmp	.-122    	; 0x15e4 <main+0x1018>
						//aDataSet.data = alphaDisplay.backlight;
						//serialport_writeCarriage(&aDataSet);
						//aDataSet.index = 2;
						//aDataSet.data = alphaDisplay.contrast;
						//serialport_writeCarriage(&aDataSet);						
						aDataSet.id = 78;					// 78
    165e:	8e e4       	ldi	r24, 0x4E	; 78
    1660:	8a 83       	std	Y+2, r24	; 0x02
						aDataSet.index = 1;
    1662:	81 e0       	ldi	r24, 0x01	; 1
    1664:	8b 83       	std	Y+3, r24	; 0x03
						aDataSet.data = led_data.mode;
    1666:	ce 5e       	subi	r28, 0xEE	; 238
    1668:	de 4f       	sbci	r29, 0xFE	; 254
    166a:	88 81       	ld	r24, Y
    166c:	c2 51       	subi	r28, 0x12	; 18
    166e:	d1 40       	sbci	r29, 0x01	; 1
    1670:	8c 83       	std	Y+4, r24	; 0x04
    1672:	1d 82       	std	Y+5, r1	; 0x05
						serialport_writeCarriage(&aDataSet);
    1674:	ce 01       	movw	r24, r28
    1676:	01 96       	adiw	r24, 0x01	; 1
    1678:	d0 d6       	rcall	.+3488   	; 0x241a <serialport_writeCarriage>
						aDataSet.id = 79;					// 79
    167a:	8f e4       	ldi	r24, 0x4F	; 79
    167c:	8a 83       	std	Y+2, r24	; 0x02
    167e:	ce 5a       	subi	r28, 0xAE	; 174
    1680:	de 4f       	sbci	r29, 0xFE	; 254
    1682:	08 81       	ld	r16, Y
    1684:	19 81       	ldd	r17, Y+1	; 0x01
    1686:	c2 55       	subi	r28, 0x52	; 82
    1688:	d1 40       	sbci	r29, 0x01	; 1
						for (i=0;i<3;i++)
    168a:	f1 2c       	mov	r15, r1
						{
							aDataSet.index = i+1;
    168c:	f3 94       	inc	r15
    168e:	fb 82       	std	Y+3, r15	; 0x03
							aDataSet.data = led_data.manualPower[i];
    1690:	f8 01       	movw	r30, r16
    1692:	81 91       	ld	r24, Z+
    1694:	8f 01       	movw	r16, r30
    1696:	8c 83       	std	Y+4, r24	; 0x04
    1698:	1d 82       	std	Y+5, r1	; 0x05
							serialport_writeCarriage(&aDataSet);
    169a:	ce 01       	movw	r24, r28
    169c:	01 96       	adiw	r24, 0x01	; 1
    169e:	bd d6       	rcall	.+3450   	; 0x241a <serialport_writeCarriage>
						aDataSet.id = 78;					// 78
						aDataSet.index = 1;
						aDataSet.data = led_data.mode;
						serialport_writeCarriage(&aDataSet);
						aDataSet.id = 79;					// 79
						for (i=0;i<3;i++)
    16a0:	f3 e0       	ldi	r31, 0x03	; 3
    16a2:	ff 12       	cpse	r15, r31
    16a4:	f3 cf       	rjmp	.-26     	; 0x168c <main+0x10c0>
    16a6:	2a c9       	rjmp	.-3500   	; 0x8fc <main+0x330>
							//serialport_writeCarriage(&aDataSet);
						//}									
						break;
					
					case 02:
						if (aDataSet.index == 0)		// ask for all of them
    16a8:	8b 81       	ldd	r24, Y+3	; 0x03
    16aa:	81 11       	cpse	r24, r1
    16ac:	13 c0       	rjmp	.+38     	; 0x16d4 <main+0x1108>
						{
							aDataSet.index = 1;
    16ae:	81 e0       	ldi	r24, 0x01	; 1
    16b0:	8b 83       	std	Y+3, r24	; 0x03
							aDataSet.data = FIRMWAREVERSION;
    16b2:	85 e0       	ldi	r24, 0x05	; 5
    16b4:	90 e0       	ldi	r25, 0x00	; 0
    16b6:	9d 83       	std	Y+5, r25	; 0x05
    16b8:	8c 83       	std	Y+4, r24	; 0x04
							serialport_writeCarriage(&aDataSet);
    16ba:	ce 01       	movw	r24, r28
    16bc:	01 96       	adiw	r24, 0x01	; 1
    16be:	ad d6       	rcall	.+3418   	; 0x241a <serialport_writeCarriage>
							aDataSet.index = 2;
    16c0:	82 e0       	ldi	r24, 0x02	; 2
    16c2:	8b 83       	std	Y+3, r24	; 0x03
							aDataSet.data = EEPROMVERSION;
    16c4:	81 e0       	ldi	r24, 0x01	; 1
    16c6:	90 e0       	ldi	r25, 0x00	; 0
    16c8:	9d 83       	std	Y+5, r25	; 0x05
    16ca:	8c 83       	std	Y+4, r24	; 0x04
							serialport_writeCarriage(&aDataSet);
    16cc:	ce 01       	movw	r24, r28
    16ce:	01 96       	adiw	r24, 0x01	; 1
    16d0:	a4 d6       	rcall	.+3400   	; 0x241a <serialport_writeCarriage>
    16d2:	14 c9       	rjmp	.-3544   	; 0x8fc <main+0x330>
						}
						else if (aDataSet.index == 1)
    16d4:	81 30       	cpi	r24, 0x01	; 1
    16d6:	41 f4       	brne	.+16     	; 0x16e8 <main+0x111c>
						{
							aDataSet.data = FIRMWAREVERSION;
    16d8:	85 e0       	ldi	r24, 0x05	; 5
    16da:	90 e0       	ldi	r25, 0x00	; 0
    16dc:	9d 83       	std	Y+5, r25	; 0x05
    16de:	8c 83       	std	Y+4, r24	; 0x04
							serialport_writeCarriage(&aDataSet);
    16e0:	ce 01       	movw	r24, r28
    16e2:	01 96       	adiw	r24, 0x01	; 1
    16e4:	9a d6       	rcall	.+3380   	; 0x241a <serialport_writeCarriage>
    16e6:	0a c9       	rjmp	.-3564   	; 0x8fc <main+0x330>
						}
						else if (aDataSet.index == 2)
    16e8:	82 30       	cpi	r24, 0x02	; 2
    16ea:	09 f0       	breq	.+2      	; 0x16ee <main+0x1122>
    16ec:	07 c9       	rjmp	.-3570   	; 0x8fc <main+0x330>
						{
							aDataSet.data = EEPROMVERSION;
    16ee:	81 e0       	ldi	r24, 0x01	; 1
    16f0:	90 e0       	ldi	r25, 0x00	; 0
    16f2:	9d 83       	std	Y+5, r25	; 0x05
    16f4:	8c 83       	std	Y+4, r24	; 0x04
							serialport_writeCarriage(&aDataSet);
    16f6:	ce 01       	movw	r24, r28
    16f8:	01 96       	adiw	r24, 0x01	; 1
    16fa:	8f d6       	rcall	.+3358   	; 0x241a <serialport_writeCarriage>
    16fc:	ff c8       	rjmp	.-3586   	; 0x8fc <main+0x330>
						}
						break;
					
					case 11:
						if (aDataSet.index == 0)		// ask for all of them
    16fe:	8b 81       	ldd	r24, Y+3	; 0x03
    1700:	81 11       	cpse	r24, r1
    1702:	12 c0       	rjmp	.+36     	; 0x1728 <main+0x115c>
    1704:	8e 01       	movw	r16, r28
    1706:	0a 5d       	subi	r16, 0xDA	; 218
    1708:	1f 4f       	sbci	r17, 0xFF	; 255
    170a:	f1 2c       	mov	r15, r1
						{							
							for (i=0;i<24;i++)
							{
								aDataSet.index = i+1;
    170c:	f3 94       	inc	r15
    170e:	fb 82       	std	Y+3, r15	; 0x03
								aDataSet.data = channel_data[0].minTemp[i];
    1710:	d8 01       	movw	r26, r16
    1712:	8d 91       	ld	r24, X+
    1714:	8d 01       	movw	r16, r26
    1716:	8c 83       	std	Y+4, r24	; 0x04
    1718:	1d 82       	std	Y+5, r1	; 0x05
								serialport_writeCarriage(&aDataSet);	
    171a:	ce 01       	movw	r24, r28
    171c:	01 96       	adiw	r24, 0x01	; 1
    171e:	7d d6       	rcall	.+3322   	; 0x241a <serialport_writeCarriage>
						break;
					
					case 11:
						if (aDataSet.index == 0)		// ask for all of them
						{							
							for (i=0;i<24;i++)
    1720:	b8 e1       	ldi	r27, 0x18	; 24
    1722:	fb 12       	cpse	r15, r27
    1724:	f3 cf       	rjmp	.-26     	; 0x170c <main+0x1140>
    1726:	ea c8       	rjmp	.-3628   	; 0x8fc <main+0x330>
								serialport_writeCarriage(&aDataSet);	
							}							
						} 
						else							// ask for a specific one
						{
							aDataSet.data = channel_data[0].minTemp[aDataSet.index-1];
    1728:	fe 01       	movw	r30, r28
    172a:	e8 0f       	add	r30, r24
    172c:	f1 1d       	adc	r31, r1
    172e:	85 a1       	ldd	r24, Z+37	; 0x25
    1730:	8c 83       	std	Y+4, r24	; 0x04
    1732:	1d 82       	std	Y+5, r1	; 0x05
							serialport_writeCarriage(&aDataSet);
    1734:	ce 01       	movw	r24, r28
    1736:	01 96       	adiw	r24, 0x01	; 1
    1738:	70 d6       	rcall	.+3296   	; 0x241a <serialport_writeCarriage>
    173a:	e0 c8       	rjmp	.-3648   	; 0x8fc <main+0x330>
						}					
						break;
						
					case 21:
						if (aDataSet.index == 0)		// ask for all of them
    173c:	8b 81       	ldd	r24, Y+3	; 0x03
    173e:	81 11       	cpse	r24, r1
    1740:	12 c0       	rjmp	.+36     	; 0x1766 <main+0x119a>
    1742:	8e 01       	movw	r16, r28
    1744:	02 5c       	subi	r16, 0xC2	; 194
    1746:	1f 4f       	sbci	r17, 0xFF	; 255
    1748:	f1 2c       	mov	r15, r1
						{
							for (i=0;i<24;i++)
							{
								aDataSet.index = i+1;
    174a:	f3 94       	inc	r15
    174c:	fb 82       	std	Y+3, r15	; 0x03
								aDataSet.data = channel_data[0].maxTemp[i];
    174e:	f8 01       	movw	r30, r16
    1750:	81 91       	ld	r24, Z+
    1752:	8f 01       	movw	r16, r30
    1754:	8c 83       	std	Y+4, r24	; 0x04
    1756:	1d 82       	std	Y+5, r1	; 0x05
								serialport_writeCarriage(&aDataSet);
    1758:	ce 01       	movw	r24, r28
    175a:	01 96       	adiw	r24, 0x01	; 1
    175c:	5e d6       	rcall	.+3260   	; 0x241a <serialport_writeCarriage>
						break;
						
					case 21:
						if (aDataSet.index == 0)		// ask for all of them
						{
							for (i=0;i<24;i++)
    175e:	f8 e1       	ldi	r31, 0x18	; 24
    1760:	ff 12       	cpse	r15, r31
    1762:	f3 cf       	rjmp	.-26     	; 0x174a <main+0x117e>
    1764:	cb c8       	rjmp	.-3690   	; 0x8fc <main+0x330>
								serialport_writeCarriage(&aDataSet);
							}
						}
						else							// ask for a specific one
						{
							aDataSet.data = channel_data[0].maxTemp[aDataSet.index-1];
    1766:	fe 01       	movw	r30, r28
    1768:	e8 0f       	add	r30, r24
    176a:	f1 1d       	adc	r31, r1
    176c:	85 ad       	ldd	r24, Z+61	; 0x3d
    176e:	8c 83       	std	Y+4, r24	; 0x04
    1770:	1d 82       	std	Y+5, r1	; 0x05
							serialport_writeCarriage(&aDataSet);
    1772:	ce 01       	movw	r24, r28
    1774:	01 96       	adiw	r24, 0x01	; 1
    1776:	51 d6       	rcall	.+3234   	; 0x241a <serialport_writeCarriage>
    1778:	c1 c8       	rjmp	.-3710   	; 0x8fc <main+0x330>
						}
						break;
					
					case 12:
						if (aDataSet.index == 0)		// ask for all of them
    177a:	8b 81       	ldd	r24, Y+3	; 0x03
    177c:	81 11       	cpse	r24, r1
    177e:	15 c0       	rjmp	.+42     	; 0x17aa <main+0x11de>
    1780:	06 e2       	ldi	r16, 0x26	; 38
    1782:	10 e0       	ldi	r17, 0x00	; 0
    1784:	0c 0f       	add	r16, r28
    1786:	1d 1f       	adc	r17, r29
    1788:	0a 5c       	subi	r16, 0xCA	; 202
    178a:	1f 4f       	sbci	r17, 0xFF	; 255
    178c:	f1 2c       	mov	r15, r1
						{
							for (i=0;i<24;i++)
							{
								aDataSet.index = i+1;
    178e:	f3 94       	inc	r15
    1790:	fb 82       	std	Y+3, r15	; 0x03
								aDataSet.data = channel_data[1].minTemp[i];
    1792:	d8 01       	movw	r26, r16
    1794:	8d 91       	ld	r24, X+
    1796:	8d 01       	movw	r16, r26
    1798:	8c 83       	std	Y+4, r24	; 0x04
    179a:	1d 82       	std	Y+5, r1	; 0x05
								serialport_writeCarriage(&aDataSet);
    179c:	ce 01       	movw	r24, r28
    179e:	01 96       	adiw	r24, 0x01	; 1
    17a0:	3c d6       	rcall	.+3192   	; 0x241a <serialport_writeCarriage>
						break;
					
					case 12:
						if (aDataSet.index == 0)		// ask for all of them
						{
							for (i=0;i<24;i++)
    17a2:	b8 e1       	ldi	r27, 0x18	; 24
    17a4:	fb 12       	cpse	r15, r27
    17a6:	f3 cf       	rjmp	.-26     	; 0x178e <main+0x11c2>
    17a8:	a9 c8       	rjmp	.-3758   	; 0x8fc <main+0x330>
								serialport_writeCarriage(&aDataSet);
							}
						}
						else							// ask for a specific one
						{
							aDataSet.data = channel_data[1].minTemp[aDataSet.index-1];
    17aa:	eb e5       	ldi	r30, 0x5B	; 91
    17ac:	f0 e0       	ldi	r31, 0x00	; 0
    17ae:	ec 0f       	add	r30, r28
    17b0:	fd 1f       	adc	r31, r29
    17b2:	e8 0f       	add	r30, r24
    17b4:	f1 1d       	adc	r31, r1
    17b6:	80 81       	ld	r24, Z
    17b8:	8c 83       	std	Y+4, r24	; 0x04
    17ba:	1d 82       	std	Y+5, r1	; 0x05
							serialport_writeCarriage(&aDataSet);
    17bc:	ce 01       	movw	r24, r28
    17be:	01 96       	adiw	r24, 0x01	; 1
    17c0:	2c d6       	rcall	.+3160   	; 0x241a <serialport_writeCarriage>
    17c2:	9c c8       	rjmp	.-3784   	; 0x8fc <main+0x330>
						}
						break;
						
					case 22:
						if (aDataSet.index == 0)		// ask for all of them
    17c4:	8b 81       	ldd	r24, Y+3	; 0x03
    17c6:	81 11       	cpse	r24, r1
    17c8:	12 c0       	rjmp	.+36     	; 0x17ee <main+0x1222>
    17ca:	8e 01       	movw	r16, r28
    17cc:	0c 58       	subi	r16, 0x8C	; 140
    17ce:	1f 4f       	sbci	r17, 0xFF	; 255
    17d0:	f1 2c       	mov	r15, r1
						{
							for (i=0;i<24;i++)
							{
								aDataSet.index = i+1;
    17d2:	f3 94       	inc	r15
    17d4:	fb 82       	std	Y+3, r15	; 0x03
								aDataSet.data = channel_data[1].maxTemp[i];
    17d6:	f8 01       	movw	r30, r16
    17d8:	81 91       	ld	r24, Z+
    17da:	8f 01       	movw	r16, r30
    17dc:	8c 83       	std	Y+4, r24	; 0x04
    17de:	1d 82       	std	Y+5, r1	; 0x05
								serialport_writeCarriage(&aDataSet);
    17e0:	ce 01       	movw	r24, r28
    17e2:	01 96       	adiw	r24, 0x01	; 1
    17e4:	1a d6       	rcall	.+3124   	; 0x241a <serialport_writeCarriage>
						break;
						
					case 22:
						if (aDataSet.index == 0)		// ask for all of them
						{
							for (i=0;i<24;i++)
    17e6:	f8 e1       	ldi	r31, 0x18	; 24
    17e8:	ff 12       	cpse	r15, r31
    17ea:	f3 cf       	rjmp	.-26     	; 0x17d2 <main+0x1206>
    17ec:	87 c8       	rjmp	.-3826   	; 0x8fc <main+0x330>
								serialport_writeCarriage(&aDataSet);
							}
						}
						else							// ask for a specific one
						{
							aDataSet.data = channel_data[1].maxTemp[aDataSet.index-1];
    17ee:	e3 e7       	ldi	r30, 0x73	; 115
    17f0:	f0 e0       	ldi	r31, 0x00	; 0
    17f2:	ec 0f       	add	r30, r28
    17f4:	fd 1f       	adc	r31, r29
    17f6:	e8 0f       	add	r30, r24
    17f8:	f1 1d       	adc	r31, r1
    17fa:	80 81       	ld	r24, Z
    17fc:	8c 83       	std	Y+4, r24	; 0x04
    17fe:	1d 82       	std	Y+5, r1	; 0x05
							serialport_writeCarriage(&aDataSet);
    1800:	ce 01       	movw	r24, r28
    1802:	01 96       	adiw	r24, 0x01	; 1
    1804:	0a d6       	rcall	.+3092   	; 0x241a <serialport_writeCarriage>
    1806:	7a c8       	rjmp	.-3852   	; 0x8fc <main+0x330>
						}
						break;
					
					case 13:
						if (aDataSet.index == 0)		// ask for all of them
    1808:	8b 81       	ldd	r24, Y+3	; 0x03
    180a:	81 11       	cpse	r24, r1
    180c:	12 c0       	rjmp	.+36     	; 0x1832 <main+0x1266>
    180e:	8e 01       	movw	r16, r28
    1810:	0e 56       	subi	r16, 0x6E	; 110
    1812:	1f 4f       	sbci	r17, 0xFF	; 255
    1814:	f1 2c       	mov	r15, r1
						{
							for (i=0;i<24;i++)
							{
								aDataSet.index = i+1;
    1816:	f3 94       	inc	r15
    1818:	fb 82       	std	Y+3, r15	; 0x03
								aDataSet.data = channel_data[2].minTemp[i];
    181a:	d8 01       	movw	r26, r16
    181c:	8d 91       	ld	r24, X+
    181e:	8d 01       	movw	r16, r26
    1820:	8c 83       	std	Y+4, r24	; 0x04
    1822:	1d 82       	std	Y+5, r1	; 0x05
								serialport_writeCarriage(&aDataSet);
    1824:	ce 01       	movw	r24, r28
    1826:	01 96       	adiw	r24, 0x01	; 1
    1828:	f8 d5       	rcall	.+3056   	; 0x241a <serialport_writeCarriage>
						break;
					
					case 13:
						if (aDataSet.index == 0)		// ask for all of them
						{
							for (i=0;i<24;i++)
    182a:	b8 e1       	ldi	r27, 0x18	; 24
    182c:	fb 12       	cpse	r15, r27
    182e:	f3 cf       	rjmp	.-26     	; 0x1816 <main+0x124a>
    1830:	65 c8       	rjmp	.-3894   	; 0x8fc <main+0x330>
								serialport_writeCarriage(&aDataSet);
							}
						}
						else							// ask for a specific one
						{
							aDataSet.data = channel_data[2].minTemp[aDataSet.index-1];
    1832:	e1 e9       	ldi	r30, 0x91	; 145
    1834:	f0 e0       	ldi	r31, 0x00	; 0
    1836:	ec 0f       	add	r30, r28
    1838:	fd 1f       	adc	r31, r29
    183a:	e8 0f       	add	r30, r24
    183c:	f1 1d       	adc	r31, r1
    183e:	80 81       	ld	r24, Z
    1840:	8c 83       	std	Y+4, r24	; 0x04
    1842:	1d 82       	std	Y+5, r1	; 0x05
							serialport_writeCarriage(&aDataSet);
    1844:	ce 01       	movw	r24, r28
    1846:	01 96       	adiw	r24, 0x01	; 1
    1848:	e8 d5       	rcall	.+3024   	; 0x241a <serialport_writeCarriage>
    184a:	58 c8       	rjmp	.-3920   	; 0x8fc <main+0x330>
						}
						break;
						
					case 23:
						if (aDataSet.index == 0)		// ask for all of them
    184c:	8b 81       	ldd	r24, Y+3	; 0x03
    184e:	81 11       	cpse	r24, r1
    1850:	12 c0       	rjmp	.+36     	; 0x1876 <main+0x12aa>
    1852:	8e 01       	movw	r16, r28
    1854:	06 55       	subi	r16, 0x56	; 86
    1856:	1f 4f       	sbci	r17, 0xFF	; 255
    1858:	f1 2c       	mov	r15, r1
						{
							for (i=0;i<24;i++)
							{
								aDataSet.index = i+1;
    185a:	f3 94       	inc	r15
    185c:	fb 82       	std	Y+3, r15	; 0x03
								aDataSet.data = channel_data[2].maxTemp[i];
    185e:	f8 01       	movw	r30, r16
    1860:	81 91       	ld	r24, Z+
    1862:	8f 01       	movw	r16, r30
    1864:	8c 83       	std	Y+4, r24	; 0x04
    1866:	1d 82       	std	Y+5, r1	; 0x05
								serialport_writeCarriage(&aDataSet);
    1868:	ce 01       	movw	r24, r28
    186a:	01 96       	adiw	r24, 0x01	; 1
    186c:	d6 d5       	rcall	.+2988   	; 0x241a <serialport_writeCarriage>
						break;
						
					case 23:
						if (aDataSet.index == 0)		// ask for all of them
						{
							for (i=0;i<24;i++)
    186e:	f8 e1       	ldi	r31, 0x18	; 24
    1870:	ff 12       	cpse	r15, r31
    1872:	f3 cf       	rjmp	.-26     	; 0x185a <main+0x128e>
    1874:	43 c8       	rjmp	.-3962   	; 0x8fc <main+0x330>
								serialport_writeCarriage(&aDataSet);
							}
						}
						else							// ask for a specific one
						{
							aDataSet.data = channel_data[2].maxTemp[aDataSet.index-1];
    1876:	e9 ea       	ldi	r30, 0xA9	; 169
    1878:	f0 e0       	ldi	r31, 0x00	; 0
    187a:	ec 0f       	add	r30, r28
    187c:	fd 1f       	adc	r31, r29
    187e:	e8 0f       	add	r30, r24
    1880:	f1 1d       	adc	r31, r1
    1882:	80 81       	ld	r24, Z
    1884:	8c 83       	std	Y+4, r24	; 0x04
    1886:	1d 82       	std	Y+5, r1	; 0x05
							serialport_writeCarriage(&aDataSet);
    1888:	ce 01       	movw	r24, r28
    188a:	01 96       	adiw	r24, 0x01	; 1
    188c:	c6 d5       	rcall	.+2956   	; 0x241a <serialport_writeCarriage>
    188e:	36 c8       	rjmp	.-3988   	; 0x8fc <main+0x330>
						}
						break;
						
					case 14:
						if (aDataSet.index == 0)		// ask for all of them
    1890:	8b 81       	ldd	r24, Y+3	; 0x03
    1892:	81 11       	cpse	r24, r1
    1894:	12 c0       	rjmp	.+36     	; 0x18ba <main+0x12ee>
    1896:	8e 01       	movw	r16, r28
    1898:	08 53       	subi	r16, 0x38	; 56
    189a:	1f 4f       	sbci	r17, 0xFF	; 255
    189c:	f1 2c       	mov	r15, r1
						{
							for (i=0;i<24;i++)
							{
								aDataSet.index = i+1;
    189e:	f3 94       	inc	r15
    18a0:	fb 82       	std	Y+3, r15	; 0x03
								aDataSet.data = channel_data[3].minTemp[i];
    18a2:	d8 01       	movw	r26, r16
    18a4:	8d 91       	ld	r24, X+
    18a6:	8d 01       	movw	r16, r26
    18a8:	8c 83       	std	Y+4, r24	; 0x04
    18aa:	1d 82       	std	Y+5, r1	; 0x05
								serialport_writeCarriage(&aDataSet);
    18ac:	ce 01       	movw	r24, r28
    18ae:	01 96       	adiw	r24, 0x01	; 1
    18b0:	b4 d5       	rcall	.+2920   	; 0x241a <serialport_writeCarriage>
						break;
						
					case 14:
						if (aDataSet.index == 0)		// ask for all of them
						{
							for (i=0;i<24;i++)
    18b2:	b8 e1       	ldi	r27, 0x18	; 24
    18b4:	fb 12       	cpse	r15, r27
    18b6:	f3 cf       	rjmp	.-26     	; 0x189e <main+0x12d2>
    18b8:	21 c8       	rjmp	.-4030   	; 0x8fc <main+0x330>
								serialport_writeCarriage(&aDataSet);
							}
						}
						else							// ask for a specific one
						{
							aDataSet.data = channel_data[3].minTemp[aDataSet.index-1];
    18ba:	e7 ec       	ldi	r30, 0xC7	; 199
    18bc:	f0 e0       	ldi	r31, 0x00	; 0
    18be:	ec 0f       	add	r30, r28
    18c0:	fd 1f       	adc	r31, r29
    18c2:	e8 0f       	add	r30, r24
    18c4:	f1 1d       	adc	r31, r1
    18c6:	80 81       	ld	r24, Z
    18c8:	8c 83       	std	Y+4, r24	; 0x04
    18ca:	1d 82       	std	Y+5, r1	; 0x05
							serialport_writeCarriage(&aDataSet);
    18cc:	ce 01       	movw	r24, r28
    18ce:	01 96       	adiw	r24, 0x01	; 1
    18d0:	a4 d5       	rcall	.+2888   	; 0x241a <serialport_writeCarriage>
    18d2:	14 c8       	rjmp	.-4056   	; 0x8fc <main+0x330>
						}
						break;
						
					case 24:
						if (aDataSet.index == 0)		// ask for all of them
    18d4:	8b 81       	ldd	r24, Y+3	; 0x03
    18d6:	81 11       	cpse	r24, r1
    18d8:	13 c0       	rjmp	.+38     	; 0x1900 <main+0x1334>
    18da:	8e 01       	movw	r16, r28
    18dc:	00 52       	subi	r16, 0x20	; 32
    18de:	1f 4f       	sbci	r17, 0xFF	; 255
    18e0:	f1 2c       	mov	r15, r1
						{
							for (i=0;i<24;i++)
							{
								aDataSet.index = i+1;
    18e2:	f3 94       	inc	r15
    18e4:	fb 82       	std	Y+3, r15	; 0x03
								aDataSet.data = channel_data[3].maxTemp[i];
    18e6:	f8 01       	movw	r30, r16
    18e8:	81 91       	ld	r24, Z+
    18ea:	8f 01       	movw	r16, r30
    18ec:	8c 83       	std	Y+4, r24	; 0x04
    18ee:	1d 82       	std	Y+5, r1	; 0x05
								serialport_writeCarriage(&aDataSet);
    18f0:	ce 01       	movw	r24, r28
    18f2:	01 96       	adiw	r24, 0x01	; 1
    18f4:	92 d5       	rcall	.+2852   	; 0x241a <serialport_writeCarriage>
						break;
						
					case 24:
						if (aDataSet.index == 0)		// ask for all of them
						{
							for (i=0;i<24;i++)
    18f6:	f8 e1       	ldi	r31, 0x18	; 24
    18f8:	ff 12       	cpse	r15, r31
    18fa:	f3 cf       	rjmp	.-26     	; 0x18e2 <main+0x1316>
    18fc:	0c 94 7e 04 	jmp	0x8fc	; 0x8fc <main+0x330>
								serialport_writeCarriage(&aDataSet);
							}
						}
						else							// ask for a specific one
						{
							aDataSet.data = channel_data[3].maxTemp[aDataSet.index-1];
    1900:	ef ed       	ldi	r30, 0xDF	; 223
    1902:	f0 e0       	ldi	r31, 0x00	; 0
    1904:	ec 0f       	add	r30, r28
    1906:	fd 1f       	adc	r31, r29
    1908:	e8 0f       	add	r30, r24
    190a:	f1 1d       	adc	r31, r1
    190c:	80 81       	ld	r24, Z
    190e:	8c 83       	std	Y+4, r24	; 0x04
    1910:	1d 82       	std	Y+5, r1	; 0x05
							serialport_writeCarriage(&aDataSet);
    1912:	ce 01       	movw	r24, r28
    1914:	01 96       	adiw	r24, 0x01	; 1
    1916:	81 d5       	rcall	.+2818   	; 0x241a <serialport_writeCarriage>
    1918:	0c 94 7e 04 	jmp	0x8fc	; 0x8fc <main+0x330>
						}
						break;
					
					case 31:
						if (aDataSet.index == 0)		// ask for all of them
    191c:	8b 81       	ldd	r24, Y+3	; 0x03
    191e:	81 11       	cpse	r24, r1
    1920:	16 c0       	rjmp	.+44     	; 0x194e <main+0x1382>
    1922:	8e 01       	movw	r16, r28
    1924:	02 5e       	subi	r16, 0xE2	; 226
    1926:	1f 4f       	sbci	r17, 0xFF	; 255
    1928:	0f 2e       	mov	r0, r31
    192a:	f1 e1       	ldi	r31, 0x11	; 17
    192c:	ff 2e       	mov	r15, r31
    192e:	f0 2d       	mov	r31, r0
						{
							for (i=0;i<8;i++)
							{
								aDataSet.index = i+17;
    1930:	fb 82       	std	Y+3, r15	; 0x03
								aDataSet.data = spare_temperature[i];
    1932:	d8 01       	movw	r26, r16
    1934:	8d 91       	ld	r24, X+
    1936:	8d 01       	movw	r16, r26
    1938:	8c 83       	std	Y+4, r24	; 0x04
    193a:	1d 82       	std	Y+5, r1	; 0x05
								serialport_writeCarriage(&aDataSet);
    193c:	ce 01       	movw	r24, r28
    193e:	01 96       	adiw	r24, 0x01	; 1
    1940:	6c d5       	rcall	.+2776   	; 0x241a <serialport_writeCarriage>
    1942:	f3 94       	inc	r15
						break;
					
					case 31:
						if (aDataSet.index == 0)		// ask for all of them
						{
							for (i=0;i<8;i++)
    1944:	b9 e1       	ldi	r27, 0x19	; 25
    1946:	fb 12       	cpse	r15, r27
    1948:	f3 cf       	rjmp	.-26     	; 0x1930 <main+0x1364>
    194a:	0c 94 7e 04 	jmp	0x8fc	; 0x8fc <main+0x330>
								serialport_writeCarriage(&aDataSet);
							}
						}
						else							// ask for a specific one
						{
							aDataSet.data = spare_temperature[aDataSet.index-17];
    194e:	fe 01       	movw	r30, r28
    1950:	e8 0f       	add	r30, r24
    1952:	f1 1d       	adc	r31, r1
    1954:	85 85       	ldd	r24, Z+13	; 0x0d
    1956:	8c 83       	std	Y+4, r24	; 0x04
    1958:	1d 82       	std	Y+5, r1	; 0x05
							serialport_writeCarriage(&aDataSet);
    195a:	ce 01       	movw	r24, r28
    195c:	01 96       	adiw	r24, 0x01	; 1
    195e:	5d d5       	rcall	.+2746   	; 0x241a <serialport_writeCarriage>
    1960:	0c 94 7e 04 	jmp	0x8fc	; 0x8fc <main+0x330>
						}
						break;
					
					case 32:
						aDataSet.index = 1;
    1964:	81 e0       	ldi	r24, 0x01	; 1
    1966:	8b 83       	std	Y+3, r24	; 0x03
						aDataSet.data = tempSensor_getOneWireAmount();
    1968:	0e 94 9a 15 	call	0x2b34	; 0x2b34 <tempSensor_getOneWireAmount>
    196c:	8c 83       	std	Y+4, r24	; 0x04
    196e:	1d 82       	std	Y+5, r1	; 0x05
						serialport_writeCarriage(&aDataSet);
    1970:	ce 01       	movw	r24, r28
    1972:	01 96       	adiw	r24, 0x01	; 1
    1974:	52 d5       	rcall	.+2724   	; 0x241a <serialport_writeCarriage>
						break;
    1976:	0c 94 7e 04 	jmp	0x8fc	; 0x8fc <main+0x330>
					
					case 33:
						if (aDataSet.index == 0)		// ask for all of them
    197a:	8b 81       	ldd	r24, Y+3	; 0x03
    197c:	88 23       	and	r24, r24
    197e:	71 f0       	breq	.+28     	; 0x199c <main+0x13d0>
    1980:	1b c0       	rjmp	.+54     	; 0x19b8 <main+0x13ec>
						{
							for (i=0;i<(8*tempSensor_getOneWireAmount());i++)
							{
								aDataSet.index = i+1;
    1982:	01 2f       	mov	r16, r17
    1984:	0f 5f       	subi	r16, 0xFF	; 255
    1986:	0b 83       	std	Y+3, r16	; 0x03
								aDataSet.data = tempSensor_getOneWireID(i);
    1988:	81 2f       	mov	r24, r17
    198a:	0e 94 9d 15 	call	0x2b3a	; 0x2b3a <tempSensor_getOneWireID>
    198e:	8c 83       	std	Y+4, r24	; 0x04
    1990:	1d 82       	std	Y+5, r1	; 0x05
								serialport_writeCarriage(&aDataSet);
    1992:	ce 01       	movw	r24, r28
    1994:	01 96       	adiw	r24, 0x01	; 1
    1996:	41 d5       	rcall	.+2690   	; 0x241a <serialport_writeCarriage>
						break;
					
					case 33:
						if (aDataSet.index == 0)		// ask for all of them
						{
							for (i=0;i<(8*tempSensor_getOneWireAmount());i++)
    1998:	10 2f       	mov	r17, r16
    199a:	01 c0       	rjmp	.+2      	; 0x199e <main+0x13d2>
						aDataSet.data = tempSensor_getOneWireAmount();
						serialport_writeCarriage(&aDataSet);
						break;
					
					case 33:
						if (aDataSet.index == 0)		// ask for all of them
    199c:	10 e0       	ldi	r17, 0x00	; 0
						{
							for (i=0;i<(8*tempSensor_getOneWireAmount());i++)
    199e:	0e 94 9a 15 	call	0x2b34	; 0x2b34 <tempSensor_getOneWireAmount>
    19a2:	21 2f       	mov	r18, r17
    19a4:	30 e0       	ldi	r19, 0x00	; 0
    19a6:	e8 e0       	ldi	r30, 0x08	; 8
    19a8:	8e 9f       	mul	r24, r30
    19aa:	c0 01       	movw	r24, r0
    19ac:	11 24       	eor	r1, r1
    19ae:	28 17       	cp	r18, r24
    19b0:	39 07       	cpc	r19, r25
    19b2:	3c f3       	brlt	.-50     	; 0x1982 <main+0x13b6>
    19b4:	0c 94 7e 04 	jmp	0x8fc	; 0x8fc <main+0x330>
								serialport_writeCarriage(&aDataSet);
							}
						}
						else							// ask for a specific one
						{
							aDataSet.data = tempSensor_getOneWireID(aDataSet.index-1);
    19b8:	81 50       	subi	r24, 0x01	; 1
    19ba:	0e 94 9d 15 	call	0x2b3a	; 0x2b3a <tempSensor_getOneWireID>
    19be:	8c 83       	std	Y+4, r24	; 0x04
    19c0:	1d 82       	std	Y+5, r1	; 0x05
							serialport_writeCarriage(&aDataSet);
    19c2:	ce 01       	movw	r24, r28
    19c4:	01 96       	adiw	r24, 0x01	; 1
    19c6:	29 d5       	rcall	.+2642   	; 0x241a <serialport_writeCarriage>
    19c8:	0c 94 7e 04 	jmp	0x8fc	; 0x8fc <main+0x330>
						}
						break;
					
					case 51:
						switch (aDataSet.index)
    19cc:	8b 81       	ldd	r24, Y+3	; 0x03
    19ce:	81 30       	cpi	r24, 0x01	; 1
    19d0:	01 f1       	breq	.+64     	; 0x1a12 <main+0x1446>
    19d2:	28 f0       	brcs	.+10     	; 0x19de <main+0x1412>
    19d4:	82 30       	cpi	r24, 0x02	; 2
    19d6:	11 f0       	breq	.+4      	; 0x19dc <main+0x1410>
    19d8:	0c 94 7e 04 	jmp	0x8fc	; 0x8fc <main+0x330>
    19dc:	26 c0       	rjmp	.+76     	; 0x1a2a <main+0x145e>
						{
							case 0:
								aDataSet.index = 1;
    19de:	81 e0       	ldi	r24, 0x01	; 1
    19e0:	8b 83       	std	Y+3, r24	; 0x03
								aDataSet.data = alert_data.overtempEnable;
    19e2:	ca 5e       	subi	r28, 0xEA	; 234
    19e4:	de 4f       	sbci	r29, 0xFE	; 254
    19e6:	88 81       	ld	r24, Y
    19e8:	c6 51       	subi	r28, 0x16	; 22
    19ea:	d1 40       	sbci	r29, 0x01	; 1
    19ec:	8c 83       	std	Y+4, r24	; 0x04
    19ee:	1d 82       	std	Y+5, r1	; 0x05
								serialport_writeCarriage(&aDataSet);
    19f0:	ce 01       	movw	r24, r28
    19f2:	01 96       	adiw	r24, 0x01	; 1
    19f4:	12 d5       	rcall	.+2596   	; 0x241a <serialport_writeCarriage>
								aDataSet.index = 2;
    19f6:	82 e0       	ldi	r24, 0x02	; 2
    19f8:	8b 83       	std	Y+3, r24	; 0x03
								aDataSet.data = alert_data.fanblockEnable;
    19fa:	c9 5e       	subi	r28, 0xE9	; 233
    19fc:	de 4f       	sbci	r29, 0xFE	; 254
    19fe:	88 81       	ld	r24, Y
    1a00:	c7 51       	subi	r28, 0x17	; 23
    1a02:	d1 40       	sbci	r29, 0x01	; 1
    1a04:	8c 83       	std	Y+4, r24	; 0x04
    1a06:	1d 82       	std	Y+5, r1	; 0x05
								serialport_writeCarriage(&aDataSet);
    1a08:	ce 01       	movw	r24, r28
    1a0a:	01 96       	adiw	r24, 0x01	; 1
    1a0c:	06 d5       	rcall	.+2572   	; 0x241a <serialport_writeCarriage>
								break;
    1a0e:	0c 94 7e 04 	jmp	0x8fc	; 0x8fc <main+0x330>
								
							case 1:
								aDataSet.data = alert_data.overtempEnable;
    1a12:	ca 5e       	subi	r28, 0xEA	; 234
    1a14:	de 4f       	sbci	r29, 0xFE	; 254
    1a16:	88 81       	ld	r24, Y
    1a18:	c6 51       	subi	r28, 0x16	; 22
    1a1a:	d1 40       	sbci	r29, 0x01	; 1
    1a1c:	8c 83       	std	Y+4, r24	; 0x04
    1a1e:	1d 82       	std	Y+5, r1	; 0x05
								serialport_writeCarriage(&aDataSet);
    1a20:	ce 01       	movw	r24, r28
    1a22:	01 96       	adiw	r24, 0x01	; 1
    1a24:	fa d4       	rcall	.+2548   	; 0x241a <serialport_writeCarriage>
								break;
    1a26:	0c 94 7e 04 	jmp	0x8fc	; 0x8fc <main+0x330>
								
							case 2:
								aDataSet.data = alert_data.fanblockEnable;
    1a2a:	c9 5e       	subi	r28, 0xE9	; 233
    1a2c:	de 4f       	sbci	r29, 0xFE	; 254
    1a2e:	88 81       	ld	r24, Y
    1a30:	c7 51       	subi	r28, 0x17	; 23
    1a32:	d1 40       	sbci	r29, 0x01	; 1
    1a34:	8c 83       	std	Y+4, r24	; 0x04
    1a36:	1d 82       	std	Y+5, r1	; 0x05
								serialport_writeCarriage(&aDataSet);
    1a38:	ce 01       	movw	r24, r28
    1a3a:	01 96       	adiw	r24, 0x01	; 1
    1a3c:	ee d4       	rcall	.+2524   	; 0x241a <serialport_writeCarriage>
								break;			
    1a3e:	0c 94 7e 04 	jmp	0x8fc	; 0x8fc <main+0x330>
						}
						break;
					
					case 70:
						switch (aDataSet.index)
    1a42:	8b 81       	ldd	r24, Y+3	; 0x03
    1a44:	81 30       	cpi	r24, 0x01	; 1
    1a46:	11 f1       	breq	.+68     	; 0x1a8c <main+0x14c0>
    1a48:	28 f0       	brcs	.+10     	; 0x1a54 <main+0x1488>
    1a4a:	82 30       	cpi	r24, 0x02	; 2
    1a4c:	11 f0       	breq	.+4      	; 0x1a52 <main+0x1486>
    1a4e:	0c 94 7e 04 	jmp	0x8fc	; 0x8fc <main+0x330>
    1a52:	29 c0       	rjmp	.+82     	; 0x1aa6 <main+0x14da>
						{
							case 0:
								aDataSet.index = 1;
    1a54:	81 e0       	ldi	r24, 0x01	; 1
    1a56:	8b 83       	std	Y+3, r24	; 0x03
								aDataSet.data = pulsePerLiter;
    1a58:	c0 5b       	subi	r28, 0xB0	; 176
    1a5a:	de 4f       	sbci	r29, 0xFE	; 254
    1a5c:	28 81       	ld	r18, Y
    1a5e:	39 81       	ldd	r19, Y+1	; 0x01
    1a60:	c0 55       	subi	r28, 0x50	; 80
    1a62:	d1 40       	sbci	r29, 0x01	; 1
    1a64:	3d 83       	std	Y+5, r19	; 0x05
    1a66:	2c 83       	std	Y+4, r18	; 0x04
								serialport_writeCarriage(&aDataSet);
    1a68:	ce 01       	movw	r24, r28
    1a6a:	01 96       	adiw	r24, 0x01	; 1
    1a6c:	d6 d4       	rcall	.+2476   	; 0x241a <serialport_writeCarriage>
								aDataSet.index = 2;
    1a6e:	82 e0       	ldi	r24, 0x02	; 2
    1a70:	8b 83       	std	Y+3, r24	; 0x03
								aDataSet.data = alert_data.minWaterFlow;
    1a72:	c8 5e       	subi	r28, 0xE8	; 232
    1a74:	de 4f       	sbci	r29, 0xFE	; 254
    1a76:	88 81       	ld	r24, Y
    1a78:	99 81       	ldd	r25, Y+1	; 0x01
    1a7a:	c8 51       	subi	r28, 0x18	; 24
    1a7c:	d1 40       	sbci	r29, 0x01	; 1
    1a7e:	9d 83       	std	Y+5, r25	; 0x05
    1a80:	8c 83       	std	Y+4, r24	; 0x04
								serialport_writeCarriage(&aDataSet);
    1a82:	ce 01       	movw	r24, r28
    1a84:	01 96       	adiw	r24, 0x01	; 1
    1a86:	c9 d4       	rcall	.+2450   	; 0x241a <serialport_writeCarriage>
								break;
    1a88:	0c 94 7e 04 	jmp	0x8fc	; 0x8fc <main+0x330>
							
							case 1:
								aDataSet.data = pulsePerLiter;
    1a8c:	c0 5b       	subi	r28, 0xB0	; 176
    1a8e:	de 4f       	sbci	r29, 0xFE	; 254
    1a90:	88 81       	ld	r24, Y
    1a92:	99 81       	ldd	r25, Y+1	; 0x01
    1a94:	c0 55       	subi	r28, 0x50	; 80
    1a96:	d1 40       	sbci	r29, 0x01	; 1
    1a98:	9d 83       	std	Y+5, r25	; 0x05
    1a9a:	8c 83       	std	Y+4, r24	; 0x04
								serialport_writeCarriage(&aDataSet);
    1a9c:	ce 01       	movw	r24, r28
    1a9e:	01 96       	adiw	r24, 0x01	; 1
    1aa0:	bc d4       	rcall	.+2424   	; 0x241a <serialport_writeCarriage>
								break;
    1aa2:	0c 94 7e 04 	jmp	0x8fc	; 0x8fc <main+0x330>
							
							case 2:
								aDataSet.data = alert_data.minWaterFlow;
    1aa6:	c8 5e       	subi	r28, 0xE8	; 232
    1aa8:	de 4f       	sbci	r29, 0xFE	; 254
    1aaa:	88 81       	ld	r24, Y
    1aac:	99 81       	ldd	r25, Y+1	; 0x01
    1aae:	c8 51       	subi	r28, 0x18	; 24
    1ab0:	d1 40       	sbci	r29, 0x01	; 1
    1ab2:	9d 83       	std	Y+5, r25	; 0x05
    1ab4:	8c 83       	std	Y+4, r24	; 0x04
								serialport_writeCarriage(&aDataSet);
    1ab6:	ce 01       	movw	r24, r28
    1ab8:	01 96       	adiw	r24, 0x01	; 1
    1aba:	af d4       	rcall	.+2398   	; 0x241a <serialport_writeCarriage>
								break;
    1abc:	0c 94 7e 04 	jmp	0x8fc	; 0x8fc <main+0x330>
						}
						break;
					
					case 71:
						if (aDataSet.index == 0)		// ask for all of them
    1ac0:	8b 81       	ldd	r24, Y+3	; 0x03
    1ac2:	81 11       	cpse	r24, r1
    1ac4:	18 c0       	rjmp	.+48     	; 0x1af6 <main+0x152a>
    1ac6:	10 e0       	ldi	r17, 0x00	; 0
						{
							for (i=0;i<4;i++)
							{
								aDataSet.index = i+1;
								aDataSet.data = channel_data[i].manualPower;
								serialport_writeCarriage(&aDataSet);
    1ac8:	f1 2e       	mov	r15, r17
    1aca:	ce 5b       	subi	r28, 0xBE	; 190
    1acc:	de 4f       	sbci	r29, 0xFE	; 254
    1ace:	08 81       	ld	r16, Y
    1ad0:	19 81       	ldd	r17, Y+1	; 0x01
    1ad2:	c2 54       	subi	r28, 0x42	; 66
    1ad4:	d1 40       	sbci	r29, 0x01	; 1
					case 71:
						if (aDataSet.index == 0)		// ask for all of them
						{
							for (i=0;i<4;i++)
							{
								aDataSet.index = i+1;
    1ad6:	f3 94       	inc	r15
    1ad8:	fb 82       	std	Y+3, r15	; 0x03
								aDataSet.data = channel_data[i].manualPower;
    1ada:	d8 01       	movw	r26, r16
    1adc:	8c 91       	ld	r24, X
    1ade:	8c 83       	std	Y+4, r24	; 0x04
    1ae0:	1d 82       	std	Y+5, r1	; 0x05
								serialport_writeCarriage(&aDataSet);
    1ae2:	ce 01       	movw	r24, r28
    1ae4:	01 96       	adiw	r24, 0x01	; 1
    1ae6:	99 d4       	rcall	.+2354   	; 0x241a <serialport_writeCarriage>
    1ae8:	0a 5c       	subi	r16, 0xCA	; 202
    1aea:	1f 4f       	sbci	r17, 0xFF	; 255
						break;
					
					case 71:
						if (aDataSet.index == 0)		// ask for all of them
						{
							for (i=0;i<4;i++)
    1aec:	b4 e0       	ldi	r27, 0x04	; 4
    1aee:	fb 12       	cpse	r15, r27
    1af0:	f2 cf       	rjmp	.-28     	; 0x1ad6 <main+0x150a>
    1af2:	0c 94 7e 04 	jmp	0x8fc	; 0x8fc <main+0x330>
								serialport_writeCarriage(&aDataSet);
							}
						}
						else							// ask for a specific one
						{
							aDataSet.data = channel_data[aDataSet.index-1].manualPower;
    1af6:	90 e0       	ldi	r25, 0x00	; 0
    1af8:	01 97       	sbiw	r24, 0x01	; 1
    1afa:	26 e3       	ldi	r18, 0x36	; 54
    1afc:	28 9f       	mul	r18, r24
    1afe:	f0 01       	movw	r30, r0
    1b00:	29 9f       	mul	r18, r25
    1b02:	f0 0d       	add	r31, r0
    1b04:	11 24       	eor	r1, r1
    1b06:	21 e0       	ldi	r18, 0x01	; 1
    1b08:	30 e0       	ldi	r19, 0x00	; 0
    1b0a:	2c 0f       	add	r18, r28
    1b0c:	3d 1f       	adc	r19, r29
    1b0e:	e2 0f       	add	r30, r18
    1b10:	f3 1f       	adc	r31, r19
    1b12:	eb 5a       	subi	r30, 0xAB	; 171
    1b14:	ff 4f       	sbci	r31, 0xFF	; 255
    1b16:	80 81       	ld	r24, Z
    1b18:	8c 83       	std	Y+4, r24	; 0x04
    1b1a:	1d 82       	std	Y+5, r1	; 0x05
							serialport_writeCarriage(&aDataSet);
    1b1c:	c9 01       	movw	r24, r18
    1b1e:	7d d4       	rcall	.+2298   	; 0x241a <serialport_writeCarriage>
    1b20:	0c 94 7e 04 	jmp	0x8fc	; 0x8fc <main+0x330>
						}
						break;
						
					case 72:
						if (aDataSet.index == 0)		// ask for all of them
    1b24:	8b 81       	ldd	r24, Y+3	; 0x03
    1b26:	81 11       	cpse	r24, r1
    1b28:	17 c0       	rjmp	.+46     	; 0x1b58 <main+0x158c>
    1b2a:	ce 5c       	subi	r28, 0xCE	; 206
    1b2c:	de 4f       	sbci	r29, 0xFE	; 254
    1b2e:	08 81       	ld	r16, Y
    1b30:	19 81       	ldd	r17, Y+1	; 0x01
    1b32:	c2 53       	subi	r28, 0x32	; 50
    1b34:	d1 40       	sbci	r29, 0x01	; 1
    1b36:	f1 2c       	mov	r15, r1
						{
							for (i=0;i<4;i++)
							{
								aDataSet.index = i+1;
    1b38:	f3 94       	inc	r15
    1b3a:	fb 82       	std	Y+3, r15	; 0x03
								aDataSet.data = channel_data[i].startupTime;
    1b3c:	d8 01       	movw	r26, r16
    1b3e:	8c 91       	ld	r24, X
    1b40:	8c 83       	std	Y+4, r24	; 0x04
    1b42:	1d 82       	std	Y+5, r1	; 0x05
								serialport_writeCarriage(&aDataSet);
    1b44:	ce 01       	movw	r24, r28
    1b46:	01 96       	adiw	r24, 0x01	; 1
    1b48:	68 d4       	rcall	.+2256   	; 0x241a <serialport_writeCarriage>
    1b4a:	0a 5c       	subi	r16, 0xCA	; 202
    1b4c:	1f 4f       	sbci	r17, 0xFF	; 255
						break;
						
					case 72:
						if (aDataSet.index == 0)		// ask for all of them
						{
							for (i=0;i<4;i++)
    1b4e:	b4 e0       	ldi	r27, 0x04	; 4
    1b50:	fb 12       	cpse	r15, r27
    1b52:	f2 cf       	rjmp	.-28     	; 0x1b38 <main+0x156c>
    1b54:	0c 94 7e 04 	jmp	0x8fc	; 0x8fc <main+0x330>
								serialport_writeCarriage(&aDataSet);
							}
						}
						else							// ask for a specific one
						{
							aDataSet.data = channel_data[aDataSet.index-1].startupTime;
    1b58:	90 e0       	ldi	r25, 0x00	; 0
    1b5a:	01 97       	sbiw	r24, 0x01	; 1
    1b5c:	26 e3       	ldi	r18, 0x36	; 54
    1b5e:	28 9f       	mul	r18, r24
    1b60:	f0 01       	movw	r30, r0
    1b62:	29 9f       	mul	r18, r25
    1b64:	f0 0d       	add	r31, r0
    1b66:	11 24       	eor	r1, r1
    1b68:	21 e0       	ldi	r18, 0x01	; 1
    1b6a:	30 e0       	ldi	r19, 0x00	; 0
    1b6c:	2c 0f       	add	r18, r28
    1b6e:	3d 1f       	adc	r19, r29
    1b70:	e2 0f       	add	r30, r18
    1b72:	f3 1f       	adc	r31, r19
    1b74:	e9 5a       	subi	r30, 0xA9	; 169
    1b76:	ff 4f       	sbci	r31, 0xFF	; 255
    1b78:	80 81       	ld	r24, Z
    1b7a:	8c 83       	std	Y+4, r24	; 0x04
    1b7c:	1d 82       	std	Y+5, r1	; 0x05
							serialport_writeCarriage(&aDataSet);
    1b7e:	c9 01       	movw	r24, r18
    1b80:	4c d4       	rcall	.+2200   	; 0x241a <serialport_writeCarriage>
    1b82:	0c 94 7e 04 	jmp	0x8fc	; 0x8fc <main+0x330>
						}
						break;
					
					case 73:
						if (aDataSet.index == 0)		// ask for all of them
    1b86:	8b 81       	ldd	r24, Y+3	; 0x03
    1b88:	81 11       	cpse	r24, r1
    1b8a:	17 c0       	rjmp	.+46     	; 0x1bba <main+0x15ee>
    1b8c:	06 e2       	ldi	r16, 0x26	; 38
    1b8e:	10 e0       	ldi	r17, 0x00	; 0
    1b90:	0c 0f       	add	r16, r28
    1b92:	1d 1f       	adc	r17, r29
    1b94:	0f 5c       	subi	r16, 0xCF	; 207
    1b96:	1f 4f       	sbci	r17, 0xFF	; 255
    1b98:	f1 2c       	mov	r15, r1
						{
							for (i=0;i<4;i++)
							{
								aDataSet.index = i+1;
    1b9a:	f3 94       	inc	r15
    1b9c:	fb 82       	std	Y+3, r15	; 0x03
								aDataSet.data = channel_data[i].minimumPower;
    1b9e:	d8 01       	movw	r26, r16
    1ba0:	8c 91       	ld	r24, X
    1ba2:	8c 83       	std	Y+4, r24	; 0x04
    1ba4:	1d 82       	std	Y+5, r1	; 0x05
								serialport_writeCarriage(&aDataSet);
    1ba6:	ce 01       	movw	r24, r28
    1ba8:	01 96       	adiw	r24, 0x01	; 1
    1baa:	37 d4       	rcall	.+2158   	; 0x241a <serialport_writeCarriage>
    1bac:	0a 5c       	subi	r16, 0xCA	; 202
    1bae:	1f 4f       	sbci	r17, 0xFF	; 255
						break;
					
					case 73:
						if (aDataSet.index == 0)		// ask for all of them
						{
							for (i=0;i<4;i++)
    1bb0:	b4 e0       	ldi	r27, 0x04	; 4
    1bb2:	fb 12       	cpse	r15, r27
    1bb4:	f2 cf       	rjmp	.-28     	; 0x1b9a <main+0x15ce>
    1bb6:	0c 94 7e 04 	jmp	0x8fc	; 0x8fc <main+0x330>
								serialport_writeCarriage(&aDataSet);
							}
						}
						else							// ask for a specific one
						{
							aDataSet.data = channel_data[aDataSet.index-1].minimumPower;
    1bba:	90 e0       	ldi	r25, 0x00	; 0
    1bbc:	01 97       	sbiw	r24, 0x01	; 1
    1bbe:	26 e3       	ldi	r18, 0x36	; 54
    1bc0:	28 9f       	mul	r18, r24
    1bc2:	f0 01       	movw	r30, r0
    1bc4:	29 9f       	mul	r18, r25
    1bc6:	f0 0d       	add	r31, r0
    1bc8:	11 24       	eor	r1, r1
    1bca:	21 e0       	ldi	r18, 0x01	; 1
    1bcc:	30 e0       	ldi	r19, 0x00	; 0
    1bce:	2c 0f       	add	r18, r28
    1bd0:	3d 1f       	adc	r19, r29
    1bd2:	e2 0f       	add	r30, r18
    1bd4:	f3 1f       	adc	r31, r19
    1bd6:	ea 5a       	subi	r30, 0xAA	; 170
    1bd8:	ff 4f       	sbci	r31, 0xFF	; 255
    1bda:	80 81       	ld	r24, Z
    1bdc:	8c 83       	std	Y+4, r24	; 0x04
    1bde:	1d 82       	std	Y+5, r1	; 0x05
							serialport_writeCarriage(&aDataSet);
    1be0:	c9 01       	movw	r24, r18
    1be2:	1b d4       	rcall	.+2102   	; 0x241a <serialport_writeCarriage>
    1be4:	0c 94 7e 04 	jmp	0x8fc	; 0x8fc <main+0x330>
						}
						break;
						
					case 74:
						if (aDataSet.index == 0)		// ask for all of them
    1be8:	8b 81       	ldd	r24, Y+3	; 0x03
    1bea:	81 11       	cpse	r24, r1
    1bec:	17 c0       	rjmp	.+46     	; 0x1c1c <main+0x1650>
    1bee:	06 e2       	ldi	r16, 0x26	; 38
    1bf0:	10 e0       	ldi	r17, 0x00	; 0
    1bf2:	0c 0f       	add	r16, r28
    1bf4:	1d 1f       	adc	r17, r29
    1bf6:	0d 5c       	subi	r16, 0xCD	; 205
    1bf8:	1f 4f       	sbci	r17, 0xFF	; 255
    1bfa:	f1 2c       	mov	r15, r1
						{
							for (i=0;i<4;i++)
							{
								aDataSet.index = i+1;
    1bfc:	f3 94       	inc	r15
    1bfe:	fb 82       	std	Y+3, r15	; 0x03
								aDataSet.data = channel_data[i].automaticMode;
    1c00:	d8 01       	movw	r26, r16
    1c02:	8c 91       	ld	r24, X
    1c04:	8c 83       	std	Y+4, r24	; 0x04
    1c06:	1d 82       	std	Y+5, r1	; 0x05
								serialport_writeCarriage(&aDataSet);
    1c08:	ce 01       	movw	r24, r28
    1c0a:	01 96       	adiw	r24, 0x01	; 1
    1c0c:	06 d4       	rcall	.+2060   	; 0x241a <serialport_writeCarriage>
    1c0e:	0a 5c       	subi	r16, 0xCA	; 202
    1c10:	1f 4f       	sbci	r17, 0xFF	; 255
						break;
						
					case 74:
						if (aDataSet.index == 0)		// ask for all of them
						{
							for (i=0;i<4;i++)
    1c12:	b4 e0       	ldi	r27, 0x04	; 4
    1c14:	fb 12       	cpse	r15, r27
    1c16:	f2 cf       	rjmp	.-28     	; 0x1bfc <main+0x1630>
    1c18:	0c 94 7e 04 	jmp	0x8fc	; 0x8fc <main+0x330>
								serialport_writeCarriage(&aDataSet);
							}
						}
						else							// ask for a specific one
						{
							aDataSet.data = channel_data[aDataSet.index-1].automaticMode;
    1c1c:	90 e0       	ldi	r25, 0x00	; 0
    1c1e:	01 97       	sbiw	r24, 0x01	; 1
    1c20:	26 e3       	ldi	r18, 0x36	; 54
    1c22:	28 9f       	mul	r18, r24
    1c24:	f0 01       	movw	r30, r0
    1c26:	29 9f       	mul	r18, r25
    1c28:	f0 0d       	add	r31, r0
    1c2a:	11 24       	eor	r1, r1
    1c2c:	21 e0       	ldi	r18, 0x01	; 1
    1c2e:	30 e0       	ldi	r19, 0x00	; 0
    1c30:	2c 0f       	add	r18, r28
    1c32:	3d 1f       	adc	r19, r29
    1c34:	e2 0f       	add	r30, r18
    1c36:	f3 1f       	adc	r31, r19
    1c38:	e8 5a       	subi	r30, 0xA8	; 168
    1c3a:	ff 4f       	sbci	r31, 0xFF	; 255
    1c3c:	80 81       	ld	r24, Z
    1c3e:	8c 83       	std	Y+4, r24	; 0x04
    1c40:	1d 82       	std	Y+5, r1	; 0x05
							serialport_writeCarriage(&aDataSet);
    1c42:	c9 01       	movw	r24, r18
    1c44:	ea d3       	rcall	.+2004   	; 0x241a <serialport_writeCarriage>
    1c46:	0c 94 7e 04 	jmp	0x8fc	; 0x8fc <main+0x330>
						}
						break;
						
					case 75:
						if (aDataSet.index == 0)		// ask for all of them
    1c4a:	8b 81       	ldd	r24, Y+3	; 0x03
    1c4c:	81 11       	cpse	r24, r1
    1c4e:	18 c0       	rjmp	.+48     	; 0x1c80 <main+0x16b4>
    1c50:	10 e0       	ldi	r17, 0x00	; 0
						{
							for (i=0;i<4;i++)
							{
								aDataSet.index = i+1;
								aDataSet.data = channel_data[i].stopEnable;
								serialport_writeCarriage(&aDataSet);
    1c52:	f1 2e       	mov	r15, r17
    1c54:	c0 5c       	subi	r28, 0xC0	; 192
    1c56:	de 4f       	sbci	r29, 0xFE	; 254
    1c58:	08 81       	ld	r16, Y
    1c5a:	19 81       	ldd	r17, Y+1	; 0x01
    1c5c:	c0 54       	subi	r28, 0x40	; 64
    1c5e:	d1 40       	sbci	r29, 0x01	; 1
					case 75:
						if (aDataSet.index == 0)		// ask for all of them
						{
							for (i=0;i<4;i++)
							{
								aDataSet.index = i+1;
    1c60:	f3 94       	inc	r15
    1c62:	fb 82       	std	Y+3, r15	; 0x03
								aDataSet.data = channel_data[i].stopEnable;
    1c64:	d8 01       	movw	r26, r16
    1c66:	8c 91       	ld	r24, X
    1c68:	8c 83       	std	Y+4, r24	; 0x04
    1c6a:	1d 82       	std	Y+5, r1	; 0x05
								serialport_writeCarriage(&aDataSet);
    1c6c:	ce 01       	movw	r24, r28
    1c6e:	01 96       	adiw	r24, 0x01	; 1
    1c70:	d4 d3       	rcall	.+1960   	; 0x241a <serialport_writeCarriage>
    1c72:	0a 5c       	subi	r16, 0xCA	; 202
    1c74:	1f 4f       	sbci	r17, 0xFF	; 255
						break;
						
					case 75:
						if (aDataSet.index == 0)		// ask for all of them
						{
							for (i=0;i<4;i++)
    1c76:	b4 e0       	ldi	r27, 0x04	; 4
    1c78:	fb 12       	cpse	r15, r27
    1c7a:	f2 cf       	rjmp	.-28     	; 0x1c60 <main+0x1694>
    1c7c:	0c 94 7e 04 	jmp	0x8fc	; 0x8fc <main+0x330>
								serialport_writeCarriage(&aDataSet);
							}
						}
						else							// ask for a specific one
						{
							aDataSet.data = channel_data[aDataSet.index-1].stopEnable;
    1c80:	90 e0       	ldi	r25, 0x00	; 0
    1c82:	01 97       	sbiw	r24, 0x01	; 1
    1c84:	26 e3       	ldi	r18, 0x36	; 54
    1c86:	28 9f       	mul	r18, r24
    1c88:	f0 01       	movw	r30, r0
    1c8a:	29 9f       	mul	r18, r25
    1c8c:	f0 0d       	add	r31, r0
    1c8e:	11 24       	eor	r1, r1
    1c90:	21 e0       	ldi	r18, 0x01	; 1
    1c92:	30 e0       	ldi	r19, 0x00	; 0
    1c94:	2c 0f       	add	r18, r28
    1c96:	3d 1f       	adc	r19, r29
    1c98:	e2 0f       	add	r30, r18
    1c9a:	f3 1f       	adc	r31, r19
    1c9c:	e7 5a       	subi	r30, 0xA7	; 167
    1c9e:	ff 4f       	sbci	r31, 0xFF	; 255
    1ca0:	80 81       	ld	r24, Z
    1ca2:	8c 83       	std	Y+4, r24	; 0x04
    1ca4:	1d 82       	std	Y+5, r1	; 0x05
							serialport_writeCarriage(&aDataSet);
    1ca6:	c9 01       	movw	r24, r18
    1ca8:	b8 d3       	rcall	.+1904   	; 0x241a <serialport_writeCarriage>
    1caa:	0c 94 7e 04 	jmp	0x8fc	; 0x8fc <main+0x330>
						}
						break;
						
					case 76:
						if (aDataSet.index == 0)		// ask for all of them
    1cae:	8b 81       	ldd	r24, Y+3	; 0x03
    1cb0:	81 11       	cpse	r24, r1
    1cb2:	18 c0       	rjmp	.+48     	; 0x1ce4 <main+0x1718>
    1cb4:	10 e0       	ldi	r17, 0x00	; 0
						{
							for (i=0;i<4;i++)
							{
								aDataSet.index = i+1;
								aDataSet.data = channel_data[i].threshold;
								serialport_writeCarriage(&aDataSet);
    1cb6:	f1 2e       	mov	r15, r17
    1cb8:	c2 5c       	subi	r28, 0xC2	; 194
    1cba:	de 4f       	sbci	r29, 0xFE	; 254
    1cbc:	08 81       	ld	r16, Y
    1cbe:	19 81       	ldd	r17, Y+1	; 0x01
    1cc0:	ce 53       	subi	r28, 0x3E	; 62
    1cc2:	d1 40       	sbci	r29, 0x01	; 1
					case 76:
						if (aDataSet.index == 0)		// ask for all of them
						{
							for (i=0;i<4;i++)
							{
								aDataSet.index = i+1;
    1cc4:	f3 94       	inc	r15
    1cc6:	fb 82       	std	Y+3, r15	; 0x03
								aDataSet.data = channel_data[i].threshold;
    1cc8:	d8 01       	movw	r26, r16
    1cca:	8c 91       	ld	r24, X
    1ccc:	8c 83       	std	Y+4, r24	; 0x04
    1cce:	1d 82       	std	Y+5, r1	; 0x05
								serialport_writeCarriage(&aDataSet);
    1cd0:	ce 01       	movw	r24, r28
    1cd2:	01 96       	adiw	r24, 0x01	; 1
    1cd4:	a2 d3       	rcall	.+1860   	; 0x241a <serialport_writeCarriage>
    1cd6:	0a 5c       	subi	r16, 0xCA	; 202
    1cd8:	1f 4f       	sbci	r17, 0xFF	; 255
						break;
						
					case 76:
						if (aDataSet.index == 0)		// ask for all of them
						{
							for (i=0;i<4;i++)
    1cda:	b4 e0       	ldi	r27, 0x04	; 4
    1cdc:	fb 12       	cpse	r15, r27
    1cde:	f2 cf       	rjmp	.-28     	; 0x1cc4 <main+0x16f8>
    1ce0:	0c 94 7e 04 	jmp	0x8fc	; 0x8fc <main+0x330>
								serialport_writeCarriage(&aDataSet);
							}
						}
						else							// ask for a specific one
						{
							aDataSet.data = channel_data[aDataSet.index-1].threshold;
    1ce4:	90 e0       	ldi	r25, 0x00	; 0
    1ce6:	01 97       	sbiw	r24, 0x01	; 1
    1ce8:	26 e3       	ldi	r18, 0x36	; 54
    1cea:	28 9f       	mul	r18, r24
    1cec:	f0 01       	movw	r30, r0
    1cee:	29 9f       	mul	r18, r25
    1cf0:	f0 0d       	add	r31, r0
    1cf2:	11 24       	eor	r1, r1
    1cf4:	21 e0       	ldi	r18, 0x01	; 1
    1cf6:	30 e0       	ldi	r19, 0x00	; 0
    1cf8:	2c 0f       	add	r18, r28
    1cfa:	3d 1f       	adc	r19, r29
    1cfc:	e2 0f       	add	r30, r18
    1cfe:	f3 1f       	adc	r31, r19
    1d00:	e6 5a       	subi	r30, 0xA6	; 166
    1d02:	ff 4f       	sbci	r31, 0xFF	; 255
    1d04:	80 81       	ld	r24, Z
    1d06:	8c 83       	std	Y+4, r24	; 0x04
    1d08:	1d 82       	std	Y+5, r1	; 0x05
							serialport_writeCarriage(&aDataSet);
    1d0a:	c9 01       	movw	r24, r18
    1d0c:	86 d3       	rcall	.+1804   	; 0x241a <serialport_writeCarriage>
    1d0e:	0c 94 7e 04 	jmp	0x8fc	; 0x8fc <main+0x330>
								//break;
						//}
						break;
						
					case 78:
						aDataSet.index = 1;
    1d12:	81 e0       	ldi	r24, 0x01	; 1
    1d14:	8b 83       	std	Y+3, r24	; 0x03
						aDataSet.data = led_data.mode;
    1d16:	ce 5e       	subi	r28, 0xEE	; 238
    1d18:	de 4f       	sbci	r29, 0xFE	; 254
    1d1a:	88 81       	ld	r24, Y
    1d1c:	c2 51       	subi	r28, 0x12	; 18
    1d1e:	d1 40       	sbci	r29, 0x01	; 1
    1d20:	8c 83       	std	Y+4, r24	; 0x04
    1d22:	1d 82       	std	Y+5, r1	; 0x05
						serialport_writeCarriage(&aDataSet);
    1d24:	ce 01       	movw	r24, r28
    1d26:	01 96       	adiw	r24, 0x01	; 1
    1d28:	78 d3       	rcall	.+1776   	; 0x241a <serialport_writeCarriage>
						break;
    1d2a:	0c 94 7e 04 	jmp	0x8fc	; 0x8fc <main+0x330>
						
					case 79:
						if (aDataSet.index == 0)		// ask for all of them
    1d2e:	8b 81       	ldd	r24, Y+3	; 0x03
    1d30:	81 11       	cpse	r24, r1
    1d32:	16 c0       	rjmp	.+44     	; 0x1d60 <main+0x1794>
    1d34:	ce 5a       	subi	r28, 0xAE	; 174
    1d36:	de 4f       	sbci	r29, 0xFE	; 254
    1d38:	08 81       	ld	r16, Y
    1d3a:	19 81       	ldd	r17, Y+1	; 0x01
    1d3c:	c2 55       	subi	r28, 0x52	; 82
    1d3e:	d1 40       	sbci	r29, 0x01	; 1
    1d40:	f1 2c       	mov	r15, r1
						{
							for (i=0;i<3;i++)
							{
								aDataSet.index = i+1;
    1d42:	f3 94       	inc	r15
    1d44:	fb 82       	std	Y+3, r15	; 0x03
								aDataSet.data = led_data.manualPower[i];
    1d46:	d8 01       	movw	r26, r16
    1d48:	8d 91       	ld	r24, X+
    1d4a:	8d 01       	movw	r16, r26
    1d4c:	8c 83       	std	Y+4, r24	; 0x04
    1d4e:	1d 82       	std	Y+5, r1	; 0x05
								serialport_writeCarriage(&aDataSet);
    1d50:	ce 01       	movw	r24, r28
    1d52:	01 96       	adiw	r24, 0x01	; 1
    1d54:	62 d3       	rcall	.+1732   	; 0x241a <serialport_writeCarriage>
						break;
						
					case 79:
						if (aDataSet.index == 0)		// ask for all of them
						{
							for (i=0;i<3;i++)
    1d56:	b3 e0       	ldi	r27, 0x03	; 3
    1d58:	fb 12       	cpse	r15, r27
    1d5a:	f3 cf       	rjmp	.-26     	; 0x1d42 <main+0x1776>
    1d5c:	0c 94 7e 04 	jmp	0x8fc	; 0x8fc <main+0x330>
								serialport_writeCarriage(&aDataSet);
							}
						}
						else							// ask for a specific one
						{
							aDataSet.data = led_data.manualPower[aDataSet.index-1];
    1d60:	e2 e1       	ldi	r30, 0x12	; 18
    1d62:	f1 e0       	ldi	r31, 0x01	; 1
    1d64:	ec 0f       	add	r30, r28
    1d66:	fd 1f       	adc	r31, r29
    1d68:	e8 0f       	add	r30, r24
    1d6a:	f1 1d       	adc	r31, r1
    1d6c:	80 81       	ld	r24, Z
    1d6e:	8c 83       	std	Y+4, r24	; 0x04
    1d70:	1d 82       	std	Y+5, r1	; 0x05
							serialport_writeCarriage(&aDataSet);
    1d72:	ce 01       	movw	r24, r28
    1d74:	01 96       	adiw	r24, 0x01	; 1
    1d76:	51 d3       	rcall	.+1698   	; 0x241a <serialport_writeCarriage>
    1d78:	0c 94 7e 04 	jmp	0x8fc	; 0x8fc <main+0x330>
						}						
					}
					if (temperature[j] > channel_data[i].maxTemp[j])	// a temperature over maximum! o.O
					{
						// over temperature
						if (alert_data.overtempEnable)
    1d7c:	ca 5e       	subi	r28, 0xEA	; 234
    1d7e:	de 4f       	sbci	r29, 0xFE	; 254
    1d80:	68 80       	ld	r6, Y
    1d82:	c6 51       	subi	r28, 0x16	; 22
    1d84:	d1 40       	sbci	r29, 0x01	; 1
    1d86:	cc 5c       	subi	r28, 0xCC	; 204
    1d88:	de 4f       	sbci	r29, 0xFE	; 254
    1d8a:	e8 81       	ld	r30, Y
    1d8c:	f9 81       	ldd	r31, Y+1	; 0x01
    1d8e:	c4 53       	subi	r28, 0x34	; 52
    1d90:	d1 40       	sbci	r29, 0x01	; 1
    1d92:	c0 5d       	subi	r28, 0xD0	; 208
    1d94:	de 4f       	sbci	r29, 0xFE	; 254
    1d96:	f9 83       	std	Y+1, r31	; 0x01
    1d98:	e8 83       	st	Y, r30
    1d9a:	c0 53       	subi	r28, 0x30	; 48
    1d9c:	d1 40       	sbci	r29, 0x01	; 1
    1d9e:	ca 5c       	subi	r28, 0xCA	; 202
    1da0:	de 4f       	sbci	r29, 0xFE	; 254
    1da2:	28 81       	ld	r18, Y
    1da4:	39 81       	ldd	r19, Y+1	; 0x01
    1da6:	c6 53       	subi	r28, 0x36	; 54
    1da8:	d1 40       	sbci	r29, 0x01	; 1
    1daa:	cc 5b       	subi	r28, 0xBC	; 188
    1dac:	de 4f       	sbci	r29, 0xFE	; 254
    1dae:	39 83       	std	Y+1, r19	; 0x01
    1db0:	28 83       	st	Y, r18
    1db2:	c4 54       	subi	r28, 0x44	; 68
    1db4:	d1 40       	sbci	r29, 0x01	; 1
    1db6:	c8 5c       	subi	r28, 0xC8	; 200
    1db8:	de 4f       	sbci	r29, 0xFE	; 254
    1dba:	88 81       	ld	r24, Y
    1dbc:	99 81       	ldd	r25, Y+1	; 0x01
    1dbe:	c8 53       	subi	r28, 0x38	; 56
    1dc0:	d1 40       	sbci	r29, 0x01	; 1
    1dc2:	c2 5c       	subi	r28, 0xC2	; 194
    1dc4:	de 4f       	sbci	r29, 0xFE	; 254
    1dc6:	99 83       	std	Y+1, r25	; 0x01
    1dc8:	88 83       	st	Y, r24
    1dca:	ce 53       	subi	r28, 0x3E	; 62
    1dcc:	d1 40       	sbci	r29, 0x01	; 1
    1dce:	c6 5c       	subi	r28, 0xC6	; 198
    1dd0:	de 4f       	sbci	r29, 0xFE	; 254
    1dd2:	a8 81       	ld	r26, Y
    1dd4:	b9 81       	ldd	r27, Y+1	; 0x01
    1dd6:	ca 53       	subi	r28, 0x3A	; 58
    1dd8:	d1 40       	sbci	r29, 0x01	; 1
    1dda:	ce 5b       	subi	r28, 0xBE	; 190
    1ddc:	de 4f       	sbci	r29, 0xFE	; 254
    1dde:	b9 83       	std	Y+1, r27	; 0x01
    1de0:	a8 83       	st	Y, r26
    1de2:	c2 54       	subi	r28, 0x42	; 66
    1de4:	d1 40       	sbci	r29, 0x01	; 1
    1de6:	c4 5c       	subi	r28, 0xC4	; 196
    1de8:	de 4f       	sbci	r29, 0xFE	; 254
    1dea:	e8 81       	ld	r30, Y
    1dec:	f9 81       	ldd	r31, Y+1	; 0x01
    1dee:	cc 53       	subi	r28, 0x3C	; 60
    1df0:	d1 40       	sbci	r29, 0x01	; 1
    1df2:	c0 5c       	subi	r28, 0xC0	; 192
    1df4:	de 4f       	sbci	r29, 0xFE	; 254
    1df6:	f9 83       	std	Y+1, r31	; 0x01
    1df8:	e8 83       	st	Y, r30
    1dfa:	c0 54       	subi	r28, 0x40	; 64
    1dfc:	d1 40       	sbci	r29, 0x01	; 1
    1dfe:	ca 5b       	subi	r28, 0xBA	; 186
    1e00:	de 4f       	sbci	r29, 0xFE	; 254
    1e02:	c8 80       	ld	r12, Y
    1e04:	c6 54       	subi	r28, 0x46	; 70
    1e06:	d1 40       	sbci	r29, 0x01	; 1
    1e08:	c9 5b       	subi	r28, 0xB9	; 185
    1e0a:	de 4f       	sbci	r29, 0xFE	; 254
    1e0c:	d8 80       	ld	r13, Y
    1e0e:	c7 54       	subi	r28, 0x47	; 71
    1e10:	d1 40       	sbci	r29, 0x01	; 1
    1e12:	c8 5b       	subi	r28, 0xB8	; 184
    1e14:	de 4f       	sbci	r29, 0xFE	; 254
    1e16:	f8 81       	ld	r31, Y
    1e18:	c8 54       	subi	r28, 0x48	; 72
    1e1a:	d1 40       	sbci	r29, 0x01	; 1
    1e1c:	c0 5e       	subi	r28, 0xE0	; 224
    1e1e:	de 4f       	sbci	r29, 0xFE	; 254
    1e20:	f8 83       	st	Y, r31
    1e22:	c0 52       	subi	r28, 0x20	; 32
    1e24:	d1 40       	sbci	r29, 0x01	; 1
    1e26:	c7 5b       	subi	r28, 0xB7	; 183
    1e28:	de 4f       	sbci	r29, 0xFE	; 254
    1e2a:	28 81       	ld	r18, Y
    1e2c:	c9 54       	subi	r28, 0x49	; 73
    1e2e:	d1 40       	sbci	r29, 0x01	; 1
    1e30:	cf 5d       	subi	r28, 0xDF	; 223
    1e32:	de 4f       	sbci	r29, 0xFE	; 254
    1e34:	28 83       	st	Y, r18
    1e36:	c1 52       	subi	r28, 0x21	; 33
    1e38:	d1 40       	sbci	r29, 0x01	; 1
    1e3a:	c6 5b       	subi	r28, 0xB6	; 182
    1e3c:	de 4f       	sbci	r29, 0xFE	; 254
    1e3e:	38 81       	ld	r19, Y
    1e40:	ca 54       	subi	r28, 0x4A	; 74
    1e42:	d1 40       	sbci	r29, 0x01	; 1
    1e44:	cc 5d       	subi	r28, 0xDC	; 220
    1e46:	de 4f       	sbci	r29, 0xFE	; 254
    1e48:	38 83       	st	Y, r19
    1e4a:	c4 52       	subi	r28, 0x24	; 36
    1e4c:	d1 40       	sbci	r29, 0x01	; 1
    1e4e:	c5 5b       	subi	r28, 0xB5	; 181
    1e50:	de 4f       	sbci	r29, 0xFE	; 254
    1e52:	48 81       	ld	r20, Y
    1e54:	cb 54       	subi	r28, 0x4B	; 75
    1e56:	d1 40       	sbci	r29, 0x01	; 1
    1e58:	cb 5d       	subi	r28, 0xDB	; 219
    1e5a:	de 4f       	sbci	r29, 0xFE	; 254
    1e5c:	48 83       	st	Y, r20
    1e5e:	c5 52       	subi	r28, 0x25	; 37
    1e60:	d1 40       	sbci	r29, 0x01	; 1
    1e62:	c4 5b       	subi	r28, 0xB4	; 180
    1e64:	de 4f       	sbci	r29, 0xFE	; 254
    1e66:	88 81       	ld	r24, Y
    1e68:	cc 54       	subi	r28, 0x4C	; 76
    1e6a:	d1 40       	sbci	r29, 0x01	; 1
    1e6c:	c2 5e       	subi	r28, 0xE2	; 226
    1e6e:	de 4f       	sbci	r29, 0xFE	; 254
    1e70:	88 83       	st	Y, r24
    1e72:	ce 51       	subi	r28, 0x1E	; 30
    1e74:	d1 40       	sbci	r29, 0x01	; 1
    1e76:	c3 5b       	subi	r28, 0xB3	; 179
    1e78:	de 4f       	sbci	r29, 0xFE	; 254
    1e7a:	98 81       	ld	r25, Y
    1e7c:	cd 54       	subi	r28, 0x4D	; 77
    1e7e:	d1 40       	sbci	r29, 0x01	; 1
    1e80:	c1 5e       	subi	r28, 0xE1	; 225
    1e82:	de 4f       	sbci	r29, 0xFE	; 254
    1e84:	98 83       	st	Y, r25
    1e86:	cf 51       	subi	r28, 0x1F	; 31
    1e88:	d1 40       	sbci	r29, 0x01	; 1
    1e8a:	c2 5b       	subi	r28, 0xB2	; 178
    1e8c:	de 4f       	sbci	r29, 0xFE	; 254
    1e8e:	a8 81       	ld	r26, Y
    1e90:	ce 54       	subi	r28, 0x4E	; 78
    1e92:	d1 40       	sbci	r29, 0x01	; 1
    1e94:	ce 5d       	subi	r28, 0xDE	; 222
    1e96:	de 4f       	sbci	r29, 0xFE	; 254
    1e98:	a8 83       	st	Y, r26
    1e9a:	c2 52       	subi	r28, 0x22	; 34
    1e9c:	d1 40       	sbci	r29, 0x01	; 1
    1e9e:	c1 5b       	subi	r28, 0xB1	; 177
    1ea0:	de 4f       	sbci	r29, 0xFE	; 254
    1ea2:	b8 81       	ld	r27, Y
    1ea4:	cf 54       	subi	r28, 0x4F	; 79
    1ea6:	d1 40       	sbci	r29, 0x01	; 1
    1ea8:	cd 5d       	subi	r28, 0xDD	; 221
    1eaa:	de 4f       	sbci	r29, 0xFE	; 254
    1eac:	b8 83       	st	Y, r27
    1eae:	c3 52       	subi	r28, 0x23	; 35
    1eb0:	d1 40       	sbci	r29, 0x01	; 1
    1eb2:	ce 5c       	subi	r28, 0xCE	; 206
    1eb4:	de 4f       	sbci	r29, 0xFE	; 254
    1eb6:	e8 81       	ld	r30, Y
    1eb8:	f9 81       	ldd	r31, Y+1	; 0x01
    1eba:	c2 53       	subi	r28, 0x32	; 50
    1ebc:	d1 40       	sbci	r29, 0x01	; 1
    1ebe:	ca 5d       	subi	r28, 0xDA	; 218
    1ec0:	de 4f       	sbci	r29, 0xFE	; 254
    1ec2:	f9 83       	std	Y+1, r31	; 0x01
    1ec4:	e8 83       	st	Y, r30
    1ec6:	c6 52       	subi	r28, 0x26	; 38
    1ec8:	d1 40       	sbci	r29, 0x01	; 1
    1eca:	68 94       	set
    1ecc:	88 24       	eor	r8, r8
    1ece:	81 f8       	bld	r8, 1
    1ed0:	99 24       	eor	r9, r9
    1ed2:	93 94       	inc	r9
    1ed4:	8c 0e       	add	r8, r28
    1ed6:	9d 1e       	adc	r9, r29
    1ed8:	a1 2c       	mov	r10, r1
    1eda:	b1 2c       	mov	r11, r1
    1edc:	21 2c       	mov	r2, r1
#include "Timer.h"
#include "TempSensor.h"
#include "EEPROM_data.h"


int main(void)
    1ede:	7e 01       	movw	r14, r28
    1ee0:	fe e1       	ldi	r31, 0x1E	; 30
    1ee2:	ef 0e       	add	r14, r31
    1ee4:	f1 1c       	adc	r15, r1
					if (temperature[j] > channel_data[i].maxTemp[j])	// a temperature over maximum! o.O
					{
						// over temperature
						if (alert_data.overtempEnable)
						{
							alert_status.overtemp = 1;
    1ee6:	55 24       	eor	r5, r5
    1ee8:	53 94       	inc	r5
						}					
						cooling = 100;
    1eea:	0f 2e       	mov	r0, r31
    1eec:	f4 e6       	ldi	r31, 0x64	; 100
    1eee:	7f 2e       	mov	r7, r31
    1ef0:	f0 2d       	mov	r31, r0
    1ef2:	0c 94 98 04 	jmp	0x930	; 0x930 <main+0x364>

00001ef6 <port_init>:
	PB3   = Extern-4 (one wire)					= input
	PB4	  = LED2 (PWM)							= output
	PB5   = LED3 (PWM)							= output
	PB6   = FAN2 (PWM, analog 2)				= output
	PB7   = FAN1 (PWM, analog 1)				= output */
	DDRB = 0b11110000;
    1ef6:	80 ef       	ldi	r24, 0xF0	; 240
    1ef8:	84 b9       	out	0x04, r24	; 4
	
	// PC0-7 = Extern-(15-22)					= input
	DDRC = 0x00;
    1efa:	17 b8       	out	0x07, r1	; 7
	/*
	PD0   = Extern-25							= input
	PD1   = Extern-23							= input
	PD2   = tacho FAN1							= input
	PD3   = tacho FAN2							= input	*/
	DDRD = 0x00;
    1efc:	1a b8       	out	0x0a, r1	; 10
	/*
	PE0   = RXD									= input
	PE1   = TXD									= output
	PE4   = tacho FAN4							= input
	PE5   = tacho FAN3							= input	*/
	DDRE = 0b00000010;
    1efe:	82 e0       	ldi	r24, 0x02	; 2
    1f00:	8d b9       	out	0x0d, r24	; 13
		
	// PF0-7 = NTC temperature sensors			= input
	DDRF = 0x00;
    1f02:	10 ba       	out	0x10, r1	; 16
	PH1   = Extern-24							= input
	PH3   = Extern-13 (backlight PWM)			= output
	PH4   = FAN4 (Intel-PWM)					= output
	PH5   = FAN3 (Intel-PWM)					= output
	PH6   = LED1 (PWM)							= output */
	DDRH = 0b01111000;
    1f04:	88 e7       	ldi	r24, 0x78	; 120
    1f06:	80 93 01 01 	sts	0x0101, r24
			
	// PL1   = DFM (tachosignal flow meter)		= input */
	DDRL = 0x00;
    1f0a:	10 92 0a 01 	sts	0x010A, r1
    1f0e:	08 95       	ret

00001f10 <serialport_write>:
static volatile uint8_t rxd_point_head = 0;							/**< pointer offset to the next position to write in receive buffer */


// This function add an array to the transmit buffer and control the DRE interrupt.
void serialport_write(uint8_t *anArray, uint8_t arrayLength)
{	
    1f10:	cf 93       	push	r28
    1f12:	df 93       	push	r29
	uint8_t counter;												// the count variable over the array length
	
	for (counter=0;counter<arrayLength;counter++)					// for each byte in the array
    1f14:	66 23       	and	r22, r22
    1f16:	e1 f0       	breq	.+56     	; 0x1f50 <serialport_write+0x40>
    1f18:	28 2f       	mov	r18, r24
    1f1a:	a8 2f       	mov	r26, r24
    1f1c:	b9 2f       	mov	r27, r25
	{				
		UCSR0B &= 0b11011111;										// deactivate the DRE (data register empty) interrupt 			
    1f1e:	e1 ec       	ldi	r30, 0xC1	; 193
    1f20:	f0 e0       	ldi	r31, 0x00	; 0
    1f22:	80 81       	ld	r24, Z
    1f24:	8f 7d       	andi	r24, 0xDF	; 223
    1f26:	80 83       	st	Z, r24
		*(txd_buffer+txd_point_head) = *(anArray+counter);			// add a byte from the array to the transmit buffer		
    1f28:	c0 91 16 03 	lds	r28, 0x0316
    1f2c:	d0 e0       	ldi	r29, 0x00	; 0
    1f2e:	c8 5e       	subi	r28, 0xE8	; 232
    1f30:	dc 4f       	sbci	r29, 0xFC	; 252
    1f32:	8d 91       	ld	r24, X+
    1f34:	88 83       	st	Y, r24
		txd_point_head = 0b00111111 & (txd_point_head + 1);			// increment the last byte "pointer" and mask it for 64 to match the buffer size
    1f36:	80 91 16 03 	lds	r24, 0x0316
    1f3a:	8f 5f       	subi	r24, 0xFF	; 255
    1f3c:	8f 73       	andi	r24, 0x3F	; 63
    1f3e:	80 93 16 03 	sts	0x0316, r24
		UCSR0B |= 0b00100000;										// activate the DRE interrupt 		
    1f42:	80 81       	ld	r24, Z
    1f44:	80 62       	ori	r24, 0x20	; 32
    1f46:	80 83       	st	Z, r24
// This function add an array to the transmit buffer and control the DRE interrupt.
void serialport_write(uint8_t *anArray, uint8_t arrayLength)
{	
	uint8_t counter;												// the count variable over the array length
	
	for (counter=0;counter<arrayLength;counter++)					// for each byte in the array
    1f48:	8a 2f       	mov	r24, r26
    1f4a:	82 1b       	sub	r24, r18
    1f4c:	86 17       	cp	r24, r22
    1f4e:	48 f3       	brcs	.-46     	; 0x1f22 <serialport_write+0x12>
		UCSR0B &= 0b11011111;										// deactivate the DRE (data register empty) interrupt 			
		*(txd_buffer+txd_point_head) = *(anArray+counter);			// add a byte from the array to the transmit buffer		
		txd_point_head = 0b00111111 & (txd_point_head + 1);			// increment the last byte "pointer" and mask it for 64 to match the buffer size
		UCSR0B |= 0b00100000;										// activate the DRE interrupt 		
	}			
}
    1f50:	df 91       	pop	r29
    1f52:	cf 91       	pop	r28
    1f54:	08 95       	ret

00001f56 <__vector_26>:


// This interrupt is executed, when the data register is empty. It put the next byte into the data register of the UART to transmit it.
// This interrupt is only enabled, if the transmit buffer hold at least one byte to transmit!
ISR(USART0_UDRE_vect)
{		
    1f56:	1f 92       	push	r1
    1f58:	0f 92       	push	r0
    1f5a:	0f b6       	in	r0, 0x3f	; 63
    1f5c:	0f 92       	push	r0
    1f5e:	11 24       	eor	r1, r1
    1f60:	0b b6       	in	r0, 0x3b	; 59
    1f62:	0f 92       	push	r0
    1f64:	8f 93       	push	r24
    1f66:	9f 93       	push	r25
    1f68:	ef 93       	push	r30
    1f6a:	ff 93       	push	r31
	UDR0 = txd_buffer[txd_point_tail];								// put the next byte into the data register	
    1f6c:	e0 91 17 03 	lds	r30, 0x0317
    1f70:	f0 e0       	ldi	r31, 0x00	; 0
    1f72:	e8 5e       	subi	r30, 0xE8	; 232
    1f74:	fc 4f       	sbci	r31, 0xFC	; 252
    1f76:	80 81       	ld	r24, Z
    1f78:	80 93 c6 00 	sts	0x00C6, r24
	txd_point_tail = 0b00111111 & (txd_point_tail + 1);				// increment the next byte pointer and mask it for 64 to match the buffer size
    1f7c:	80 91 17 03 	lds	r24, 0x0317
    1f80:	8f 5f       	subi	r24, 0xFF	; 255
    1f82:	8f 73       	andi	r24, 0x3F	; 63
    1f84:	80 93 17 03 	sts	0x0317, r24
	
	// if the last byte is transmitting	
	if (txd_point_tail==txd_point_head){
    1f88:	90 91 17 03 	lds	r25, 0x0317
    1f8c:	80 91 16 03 	lds	r24, 0x0316
    1f90:	98 13       	cpse	r25, r24
    1f92:	05 c0       	rjmp	.+10     	; 0x1f9e <__vector_26+0x48>
		UCSR0B &= 0b11011111;										// deactivate the DRE interrupt 		
    1f94:	e1 ec       	ldi	r30, 0xC1	; 193
    1f96:	f0 e0       	ldi	r31, 0x00	; 0
    1f98:	80 81       	ld	r24, Z
    1f9a:	8f 7d       	andi	r24, 0xDF	; 223
    1f9c:	80 83       	st	Z, r24
	}		
}
    1f9e:	ff 91       	pop	r31
    1fa0:	ef 91       	pop	r30
    1fa2:	9f 91       	pop	r25
    1fa4:	8f 91       	pop	r24
    1fa6:	0f 90       	pop	r0
    1fa8:	0b be       	out	0x3b, r0	; 59
    1faa:	0f 90       	pop	r0
    1fac:	0f be       	out	0x3f, r0	; 63
    1fae:	0f 90       	pop	r0
    1fb0:	1f 90       	pop	r1
    1fb2:	18 95       	reti

00001fb4 <serialport_checkSpace>:


// This function check how many space are in the transmit buffer.
uint8_t serialport_checkSpace(void)
{
	if ((UCSR0B & 0b00100000) == 0)									// there is no data to transmit, because the interrupt is off
    1fb4:	80 91 c1 00 	lds	r24, 0x00C1
    1fb8:	85 ff       	sbrs	r24, 5
    1fba:	0f c0       	rjmp	.+30     	; 0x1fda <serialport_checkSpace+0x26>
	{
		return 64;													// so simply return 64 bytes are free
	} else if (txd_point_head == txd_point_tail)					// buffer is complete full!
    1fbc:	90 91 16 03 	lds	r25, 0x0316
    1fc0:	80 91 17 03 	lds	r24, 0x0317
    1fc4:	98 17       	cp	r25, r24
    1fc6:	59 f0       	breq	.+22     	; 0x1fde <serialport_checkSpace+0x2a>
	{
		return 0;
	} else															// calculate free buffer
	{
		return 64 - ((txd_point_head - txd_point_tail) & 0b00111111);			
    1fc8:	90 91 16 03 	lds	r25, 0x0316
    1fcc:	80 91 17 03 	lds	r24, 0x0317
    1fd0:	98 1b       	sub	r25, r24
    1fd2:	9f 73       	andi	r25, 0x3F	; 63
    1fd4:	80 e4       	ldi	r24, 0x40	; 64
    1fd6:	89 1b       	sub	r24, r25
    1fd8:	08 95       	ret
// This function check how many space are in the transmit buffer.
uint8_t serialport_checkSpace(void)
{
	if ((UCSR0B & 0b00100000) == 0)									// there is no data to transmit, because the interrupt is off
	{
		return 64;													// so simply return 64 bytes are free
    1fda:	80 e4       	ldi	r24, 0x40	; 64
    1fdc:	08 95       	ret
	} else if (txd_point_head == txd_point_tail)					// buffer is complete full!
	{
		return 0;
    1fde:	80 e0       	ldi	r24, 0x00	; 0
	} else															// calculate free buffer
	{
		return 64 - ((txd_point_head - txd_point_tail) & 0b00111111);			
	}
}
    1fe0:	08 95       	ret

00001fe2 <__vector_25>:


// This interrupt is executed, when a byte is received. It put it on the head of the receive buffer and increment the head pointer.
ISR(USART0_RX_vect)
{	
    1fe2:	1f 92       	push	r1
    1fe4:	0f 92       	push	r0
    1fe6:	0f b6       	in	r0, 0x3f	; 63
    1fe8:	0f 92       	push	r0
    1fea:	11 24       	eor	r1, r1
    1fec:	0b b6       	in	r0, 0x3b	; 59
    1fee:	0f 92       	push	r0
    1ff0:	8f 93       	push	r24
    1ff2:	ef 93       	push	r30
    1ff4:	ff 93       	push	r31
	rxd_buffer[rxd_point_head] = UDR0;								// copy byte from data register to receive buffer			
    1ff6:	e0 91 14 02 	lds	r30, 0x0214
    1ffa:	f0 e0       	ldi	r31, 0x00	; 0
    1ffc:	80 91 c6 00 	lds	r24, 0x00C6
    2000:	ea 5e       	subi	r30, 0xEA	; 234
    2002:	fd 4f       	sbci	r31, 0xFD	; 253
    2004:	80 83       	st	Z, r24
	rxd_point_head++;												// increment the receive head pointer	
    2006:	80 91 14 02 	lds	r24, 0x0214
    200a:	8f 5f       	subi	r24, 0xFF	; 255
    200c:	80 93 14 02 	sts	0x0214, r24
}
    2010:	ff 91       	pop	r31
    2012:	ef 91       	pop	r30
    2014:	8f 91       	pop	r24
    2016:	0f 90       	pop	r0
    2018:	0b be       	out	0x3b, r0	; 59
    201a:	0f 90       	pop	r0
    201c:	0f be       	out	0x3f, r0	; 63
    201e:	0f 90       	pop	r0
    2020:	1f 90       	pop	r1
    2022:	18 95       	reti

00002024 <serialport_getLastString>:
{	
	uint8_t counter;												// the count variable over the array length
	uint8_t cr_is_there = 0;										// becomes true if we found a CR
	
	// run through all filled buffer bytes and search for a CR
	for (counter=rxd_point_tail;counter!=rxd_point_head;counter++)
    2024:	20 91 15 02 	lds	r18, 0x0215
    2028:	30 91 14 02 	lds	r19, 0x0214
    202c:	23 17       	cp	r18, r19
    202e:	09 f4       	brne	.+2      	; 0x2032 <serialport_getLastString+0xe>
    2030:	59 c0       	rjmp	.+178    	; 0x20e4 <serialport_getLastString+0xc0>
	{						
		if (rxd_buffer[counter]==13) {								// 13 == CR (carriage return)
    2032:	e2 2f       	mov	r30, r18
    2034:	f0 e0       	ldi	r31, 0x00	; 0
    2036:	ea 5e       	subi	r30, 0xEA	; 234
    2038:	fd 4f       	sbci	r31, 0xFD	; 253
    203a:	30 81       	ld	r19, Z
    203c:	3d 30       	cpi	r19, 0x0D	; 13
    203e:	41 f4       	brne	.+16     	; 0x2050 <serialport_getLastString+0x2c>
    2040:	36 c0       	rjmp	.+108    	; 0x20ae <serialport_getLastString+0x8a>
    2042:	e2 2f       	mov	r30, r18
    2044:	f0 e0       	ldi	r31, 0x00	; 0
    2046:	ea 5e       	subi	r30, 0xEA	; 234
    2048:	fd 4f       	sbci	r31, 0xFD	; 253
    204a:	30 81       	ld	r19, Z
    204c:	3d 30       	cpi	r19, 0x0D	; 13
    204e:	89 f1       	breq	.+98     	; 0x20b2 <serialport_getLastString+0x8e>
{	
	uint8_t counter;												// the count variable over the array length
	uint8_t cr_is_there = 0;										// becomes true if we found a CR
	
	// run through all filled buffer bytes and search for a CR
	for (counter=rxd_point_tail;counter!=rxd_point_head;counter++)
    2050:	2f 5f       	subi	r18, 0xFF	; 255
    2052:	30 91 14 02 	lds	r19, 0x0214
    2056:	32 13       	cpse	r19, r18
    2058:	f4 cf       	rjmp	.-24     	; 0x2042 <serialport_getLastString+0x1e>
		
		return counter+1;											// return the received characters + '\0'
				
	} else															// we haven't found a CR
	{																
		return 0;													// nothing received to return		
    205a:	80 e0       	ldi	r24, 0x00	; 0
    205c:	08 95       	ret
	{		
		counter = 0;												// clear counter		
				
		while (rxd_buffer[rxd_point_tail]!=13)						// until we reach the CR
		{			
			*(anArray+counter) = rxd_buffer[rxd_point_tail];		// copy data to array			
    205e:	e0 91 15 02 	lds	r30, 0x0215
    2062:	f0 e0       	ldi	r31, 0x00	; 0
    2064:	ea 5e       	subi	r30, 0xEA	; 234
    2066:	fd 4f       	sbci	r31, 0xFD	; 253
    2068:	20 81       	ld	r18, Z
    206a:	fc 01       	movw	r30, r24
    206c:	e7 0f       	add	r30, r23
    206e:	f1 1d       	adc	r31, r1
    2070:	20 83       	st	Z, r18
			rxd_point_tail++;										// increment tail
    2072:	20 91 15 02 	lds	r18, 0x0215
    2076:	2f 5f       	subi	r18, 0xFF	; 255
    2078:	20 93 15 02 	sts	0x0215, r18
			counter++;												// and the counter
    207c:	7f 5f       	subi	r23, 0xFF	; 255
			
			// If the array is full and CR is not reached!
			if ((counter == (maxLength-1)) && (rxd_buffer[rxd_point_tail]!=13))
    207e:	27 2f       	mov	r18, r23
    2080:	30 e0       	ldi	r19, 0x00	; 0
    2082:	24 17       	cp	r18, r20
    2084:	35 07       	cpc	r19, r21
    2086:	d1 f4       	brne	.+52     	; 0x20bc <serialport_getLastString+0x98>
    2088:	e0 91 15 02 	lds	r30, 0x0215
    208c:	f0 e0       	ldi	r31, 0x00	; 0
    208e:	ea 5e       	subi	r30, 0xEA	; 234
    2090:	fd 4f       	sbci	r31, 0xFD	; 253
    2092:	20 81       	ld	r18, Z
    2094:	2d 30       	cpi	r18, 0x0D	; 13
    2096:	91 f0       	breq	.+36     	; 0x20bc <serialport_getLastString+0x98>
			{
				*(anArray+counter) = 0;								// add the '\0' to the end of string
    2098:	fc 01       	movw	r30, r24
    209a:	e7 0f       	add	r30, r23
    209c:	f1 1d       	adc	r31, r1
    209e:	10 82       	st	Z, r1
				rxd_point_tail++;									// also need to increment the tail				
    20a0:	80 91 15 02 	lds	r24, 0x0215
    20a4:	8f 5f       	subi	r24, 0xFF	; 255
    20a6:	80 93 15 02 	sts	0x0215, r24
				return 0;											// return 0 (change this if you want)
    20aa:	80 e0       	ldi	r24, 0x00	; 0
    20ac:	08 95       	ret
	uint8_t cr_is_there = 0;										// becomes true if we found a CR
	
	// run through all filled buffer bytes and search for a CR
	for (counter=rxd_point_tail;counter!=rxd_point_head;counter++)
	{						
		if (rxd_buffer[counter]==13) {								// 13 == CR (carriage return)
    20ae:	70 e0       	ldi	r23, 0x00	; 0
    20b0:	01 c0       	rjmp	.+2      	; 0x20b4 <serialport_getLastString+0x90>
    20b2:	70 e0       	ldi	r23, 0x00	; 0
			*(anArray+counter) = rxd_buffer[rxd_point_tail];		// copy data to array			
			rxd_point_tail++;										// increment tail
			counter++;												// and the counter
			
			// If the array is full and CR is not reached!
			if ((counter == (maxLength-1)) && (rxd_buffer[rxd_point_tail]!=13))
    20b4:	46 2f       	mov	r20, r22
    20b6:	50 e0       	ldi	r21, 0x00	; 0
    20b8:	41 50       	subi	r20, 0x01	; 1
    20ba:	51 09       	sbc	r21, r1
	// if we have a CR
	if (cr_is_there)
	{		
		counter = 0;												// clear counter		
				
		while (rxd_buffer[rxd_point_tail]!=13)						// until we reach the CR
    20bc:	e0 91 15 02 	lds	r30, 0x0215
    20c0:	f0 e0       	ldi	r31, 0x00	; 0
    20c2:	ea 5e       	subi	r30, 0xEA	; 234
    20c4:	fd 4f       	sbci	r31, 0xFD	; 253
    20c6:	20 81       	ld	r18, Z
    20c8:	2d 30       	cpi	r18, 0x0D	; 13
    20ca:	49 f6       	brne	.-110    	; 0x205e <serialport_getLastString+0x3a>
				rxd_point_tail++;									// also need to increment the tail				
				return 0;											// return 0 (change this if you want)
			}									
		}
				
		*(anArray+counter) = 0;										// add the '\0' to the end of string	
    20cc:	fc 01       	movw	r30, r24
    20ce:	e7 0f       	add	r30, r23
    20d0:	f1 1d       	adc	r31, r1
    20d2:	10 82       	st	Z, r1
		rxd_point_tail++;											// need to increment the tail ones more
    20d4:	80 91 15 02 	lds	r24, 0x0215
    20d8:	8f 5f       	subi	r24, 0xFF	; 255
    20da:	80 93 15 02 	sts	0x0215, r24
		
		return counter+1;											// return the received characters + '\0'
    20de:	87 2f       	mov	r24, r23
    20e0:	8f 5f       	subi	r24, 0xFF	; 255
    20e2:	08 95       	ret
				
	} else															// we haven't found a CR
	{																
		return 0;													// nothing received to return		
    20e4:	80 e0       	ldi	r24, 0x00	; 0
	}	
}
    20e6:	08 95       	ret

000020e8 <serialport_init>:
{
	// According to the ATmega2560 data sheet page 230 use U2X = 0 and UBRR = 16
	// for 57600 Baud with 16 MHz oscillator. Error is usually not acceptable with 2.1%.
	// But the ATmega16U2 on the Arduino 2560 have the same error, so it works fine!
	
	UBRR0 = 16;														// setup baud rate generator
    20e8:	80 e1       	ldi	r24, 0x10	; 16
    20ea:	90 e0       	ldi	r25, 0x00	; 0
    20ec:	90 93 c5 00 	sts	0x00C5, r25
    20f0:	80 93 c4 00 	sts	0x00C4, r24
	UCSR0A = 0b00000000;											// reset U2X0
    20f4:	10 92 c0 00 	sts	0x00C0, r1
	UCSR0C = 0b00000110;											// 8N1
    20f8:	86 e0       	ldi	r24, 0x06	; 6
    20fa:	80 93 c2 00 	sts	0x00C2, r24
	UCSR0B = 0b10011000;											// enable receive interrupt, receiver and transmitter
    20fe:	88 e9       	ldi	r24, 0x98	; 152
    2100:	80 93 c1 00 	sts	0x00C1, r24
    2104:	08 95       	ret

00002106 <serialport_getLastCarriage>:


// This function read out the last received string (witch should have the carriage format) and convert it to a carriage.
// It is protected against wrong string codes. See error code table in the header. It uses the serialport_getLastString(..) function.
uint8_t serialport_getLastCarriage(CARRIAGE* aCARRIAGE)
{	
    2106:	0f 93       	push	r16
    2108:	1f 93       	push	r17
    210a:	cf 93       	push	r28
    210c:	df 93       	push	r29
    210e:	cd b7       	in	r28, 0x3d	; 61
    2110:	de b7       	in	r29, 0x3e	; 62
    2112:	65 97       	sbiw	r28, 0x15	; 21
    2114:	0f b6       	in	r0, 0x3f	; 63
    2116:	f8 94       	cli
    2118:	de bf       	out	0x3e, r29	; 62
    211a:	0f be       	out	0x3f, r0	; 63
    211c:	cd bf       	out	0x3d, r28	; 61
    211e:	8c 01       	movw	r16, r24
	uint8_t firstData = 7;											// position of the first data character 
	uint8_t countHashtag = 0;										// count the '#' 
	uint8_t thirdHashtagPosition = 0;								// position of the third '#'
	
	// use the function for receiving a string	
	stringLength = serialport_getLastString(recievedString, MAX_CARRIAGE_LENGTH);
    2120:	60 e1       	ldi	r22, 0x10	; 16
    2122:	ce 01       	movw	r24, r28
    2124:	01 96       	adiw	r24, 0x01	; 1
    2126:	7e df       	rcall	.-260    	; 0x2024 <serialport_getLastString>
		
	if(stringLength==0) return 1;									// error code "1" - no new carriage
    2128:	88 23       	and	r24, r24
    212a:	09 f4       	brne	.+2      	; 0x212e <serialport_getLastCarriage+0x28>
    212c:	3c c1       	rjmp	.+632    	; 0x23a6 <__stack+0x1a7>
	if(stringLength<10) return 2;									// error code "2" - string is to short
    212e:	8a 30       	cpi	r24, 0x0A	; 10
    2130:	08 f4       	brcc	.+2      	; 0x2134 <serialport_getLastCarriage+0x2e>
    2132:	3b c1       	rjmp	.+630    	; 0x23aa <__stack+0x1ab>
	if(stringLength>MAX_CARRIAGE_LENGTH) return 3;					// error code "3" - string is to long!!!
    2134:	81 31       	cpi	r24, 0x11	; 17
    2136:	08 f0       	brcs	.+2      	; 0x213a <serialport_getLastCarriage+0x34>
    2138:	3a c1       	rjmp	.+628    	; 0x23ae <__stack+0x1af>
    213a:	fe 01       	movw	r30, r28
    213c:	31 96       	adiw	r30, 0x01	; 1
    213e:	20 e0       	ldi	r18, 0x00	; 0
    2140:	30 e0       	ldi	r19, 0x00	; 0
    2142:	a0 e0       	ldi	r26, 0x00	; 0
    2144:	70 e0       	ldi	r23, 0x00	; 0
																	// this should not be possible!
	// check the format of the received string
	countHashtag = 0;		
	for(counter=0;counter<stringLength;counter++){					// for each character
		if(recievedString[counter]=='#') {							// character is a '#'
    2146:	a9 01       	movw	r20, r18
    2148:	91 91       	ld	r25, Z+
    214a:	93 32       	cpi	r25, 0x23	; 35
    214c:	09 f5       	brne	.+66     	; 0x2190 <serialport_getLastCarriage+0x8a>
			countHashtag++;
    214e:	7f 5f       	subi	r23, 0xFF	; 255
			if(countHashtag==1 && counter!=1) return 4;				// first # on wrong position
    2150:	71 30       	cpi	r23, 0x01	; 1
    2152:	19 f4       	brne	.+6      	; 0x215a <serialport_getLastCarriage+0x54>
    2154:	21 30       	cpi	r18, 0x01	; 1
    2156:	81 f0       	breq	.+32     	; 0x2178 <serialport_getLastCarriage+0x72>
    2158:	2c c1       	rjmp	.+600    	; 0x23b2 <__stack+0x1b3>
			if(countHashtag==2 && counter!=4) return 5;				// second # on wrong position
    215a:	72 30       	cpi	r23, 0x02	; 2
    215c:	19 f4       	brne	.+6      	; 0x2164 <serialport_getLastCarriage+0x5e>
    215e:	24 30       	cpi	r18, 0x04	; 4
    2160:	b9 f0       	breq	.+46     	; 0x2190 <serialport_getLastCarriage+0x8a>
    2162:	29 c1       	rjmp	.+594    	; 0x23b6 <__stack+0x1b7>
			if(countHashtag==3 && counter<6) return 6;				// third # to early
    2164:	73 30       	cpi	r23, 0x03	; 3
    2166:	41 f4       	brne	.+16     	; 0x2178 <serialport_getLastCarriage+0x72>
    2168:	26 30       	cpi	r18, 0x06	; 6
    216a:	08 f4       	brcc	.+2      	; 0x216e <serialport_getLastCarriage+0x68>
    216c:	26 c1       	rjmp	.+588    	; 0x23ba <__stack+0x1bb>
			if(countHashtag==3 && counter>8) return 7;				// third # to late
    216e:	29 30       	cpi	r18, 0x09	; 9
    2170:	08 f0       	brcs	.+2      	; 0x2174 <serialport_getLastCarriage+0x6e>
    2172:	25 c1       	rjmp	.+586    	; 0x23be <__stack+0x1bf>
    2174:	a2 2f       	mov	r26, r18
    2176:	0c c0       	rjmp	.+24     	; 0x2190 <serialport_getLastCarriage+0x8a>
			if(countHashtag==3) thirdHashtagPosition = counter;		
			if(countHashtag==5 && (counter-thirdHashtagPosition)<2) return 8;	// fourth # to early
    2178:	75 30       	cpi	r23, 0x05	; 5
    217a:	51 f4       	brne	.+20     	; 0x2190 <serialport_getLastCarriage+0x8a>
    217c:	4a 1b       	sub	r20, r26
    217e:	51 09       	sbc	r21, r1
    2180:	42 30       	cpi	r20, 0x02	; 2
    2182:	51 05       	cpc	r21, r1
    2184:	0c f4       	brge	.+2      	; 0x2188 <serialport_getLastCarriage+0x82>
    2186:	1d c1       	rjmp	.+570    	; 0x23c2 <__stack+0x1c3>
			if(countHashtag==5 && (counter-thirdHashtagPosition)>6) return 9;	// fourth # to late						
    2188:	47 30       	cpi	r20, 0x07	; 7
    218a:	51 05       	cpc	r21, r1
    218c:	0c f0       	brlt	.+2      	; 0x2190 <serialport_getLastCarriage+0x8a>
    218e:	1b c1       	rjmp	.+566    	; 0x23c6 <__stack+0x1c7>
    2190:	2f 5f       	subi	r18, 0xFF	; 255
    2192:	3f 4f       	sbci	r19, 0xFF	; 255
	if(stringLength<10) return 2;									// error code "2" - string is to short
	if(stringLength>MAX_CARRIAGE_LENGTH) return 3;					// error code "3" - string is to long!!!
																	// this should not be possible!
	// check the format of the received string
	countHashtag = 0;		
	for(counter=0;counter<stringLength;counter++){					// for each character
    2194:	28 17       	cp	r18, r24
    2196:	b8 f2       	brcs	.-82     	; 0x2146 <serialport_getLastCarriage+0x40>
			if(countHashtag==3) thirdHashtagPosition = counter;		
			if(countHashtag==5 && (counter-thirdHashtagPosition)<2) return 8;	// fourth # to early
			if(countHashtag==5 && (counter-thirdHashtagPosition)>6) return 9;	// fourth # to late						
		}					
	}
	if(countHashtag!=4) return 10;									// error code "4" - format does not match
    2198:	74 30       	cpi	r23, 0x04	; 4
    219a:	09 f0       	breq	.+2      	; 0x219e <serialport_getLastCarriage+0x98>
    219c:	16 c1       	rjmp	.+556    	; 0x23ca <__stack+0x1cb>
	
	
	// if you reach this, the string seems to be valid!
			
	aCARRIAGE->dA = recievedString[0] - '0';						// store the DA identifier							
    219e:	89 81       	ldd	r24, Y+1	; 0x01
    21a0:	80 53       	subi	r24, 0x30	; 48
    21a2:	f8 01       	movw	r30, r16
    21a4:	80 83       	st	Z, r24
	aCARRIAGE->id = (10 * (recievedString[2] - '0') + recievedString[3] - '0');	// store the ID
    21a6:	9c 81       	ldd	r25, Y+4	; 0x04
    21a8:	90 51       	subi	r25, 0x10	; 16
    21aa:	8b 81       	ldd	r24, Y+3	; 0x03
    21ac:	88 0f       	add	r24, r24
    21ae:	28 2f       	mov	r18, r24
    21b0:	22 0f       	add	r18, r18
    21b2:	22 0f       	add	r18, r18
    21b4:	82 0f       	add	r24, r18
    21b6:	89 0f       	add	r24, r25
    21b8:	81 83       	std	Z+1, r24	; 0x01
	
	// extract the number and count its length	
	for(counter=0;counter<3;counter++){			
		if (recievedString[5+counter]=='#') break;
    21ba:	8e 81       	ldd	r24, Y+6	; 0x06
    21bc:	83 32       	cpi	r24, 0x23	; 35
    21be:	09 f0       	breq	.+2      	; 0x21c2 <serialport_getLastCarriage+0xbc>
    21c0:	16 c1       	rjmp	.+556    	; 0x23ee <__stack+0x1ef>
    21c2:	05 c1       	rjmp	.+522    	; 0x23ce <__stack+0x1cf>
			
	aCARRIAGE->dA = recievedString[0] - '0';						// store the DA identifier							
	aCARRIAGE->id = (10 * (recievedString[2] - '0') + recievedString[3] - '0');	// store the ID
	
	// extract the number and count its length	
	for(counter=0;counter<3;counter++){			
    21c4:	81 e0       	ldi	r24, 0x01	; 1
    21c6:	01 c0       	rjmp	.+2      	; 0x21ca <serialport_getLastCarriage+0xc4>
		if (recievedString[5+counter]=='#') break;
    21c8:	82 e0       	ldi	r24, 0x02	; 2
		Substring[counter] = recievedString[5+counter];			
	}
	
	// convert the number in the string to a uint_8				
	switch (counter) {
    21ca:	82 30       	cpi	r24, 0x02	; 2
    21cc:	c9 f0       	breq	.+50     	; 0x2200 <__stack+0x1>
    21ce:	83 30       	cpi	r24, 0x03	; 3
    21d0:	29 f0       	breq	.+10     	; 0x21dc <serialport_getLastCarriage+0xd6>
    21d2:	81 30       	cpi	r24, 0x01	; 1
    21d4:	09 f0       	breq	.+2      	; 0x21d8 <serialport_getLastCarriage+0xd2>
    21d6:	fd c0       	rjmp	.+506    	; 0x23d2 <__stack+0x1d3>
    21d8:	20 c0       	rjmp	.+64     	; 0x221a <__stack+0x1b>
	aCARRIAGE->id = (10 * (recievedString[2] - '0') + recievedString[3] - '0');	// store the ID
	
	// extract the number and count its length	
	for(counter=0;counter<3;counter++){			
		if (recievedString[5+counter]=='#') break;
		Substring[counter] = recievedString[5+counter];			
    21da:	8b 8b       	std	Y+19, r24	; 0x13
	// convert the number in the string to a uint_8				
	switch (counter) {
			
		case 3:														// three digits
			aCARRIAGE->index = (100 * (Substring[0] - '0'));
			aCARRIAGE->index += (10 * (Substring[1] - '0'));
    21dc:	9b 89       	ldd	r25, Y+19	; 0x13
    21de:	90 5d       	subi	r25, 0xD0	; 208
	
	// convert the number in the string to a uint_8				
	switch (counter) {
			
		case 3:														// three digits
			aCARRIAGE->index = (100 * (Substring[0] - '0'));
    21e0:	89 89       	ldd	r24, Y+17	; 0x11
			aCARRIAGE->index += (10 * (Substring[1] - '0'));
			aCARRIAGE->index += (Substring[2] - '0');
    21e2:	f4 e6       	ldi	r31, 0x64	; 100
    21e4:	8f 9f       	mul	r24, r31
    21e6:	90 0d       	add	r25, r0
    21e8:	11 24       	eor	r1, r1
	// convert the number in the string to a uint_8				
	switch (counter) {
			
		case 3:														// three digits
			aCARRIAGE->index = (100 * (Substring[0] - '0'));
			aCARRIAGE->index += (10 * (Substring[1] - '0'));
    21ea:	8a 89       	ldd	r24, Y+18	; 0x12
    21ec:	88 0f       	add	r24, r24
    21ee:	28 2f       	mov	r18, r24
    21f0:	22 0f       	add	r18, r18
    21f2:	22 0f       	add	r18, r18
    21f4:	82 0f       	add	r24, r18
			aCARRIAGE->index += (Substring[2] - '0');
    21f6:	89 0f       	add	r24, r25
    21f8:	f8 01       	movw	r30, r16
    21fa:	82 83       	std	Z+2, r24	; 0x02
			firstData += 2;
    21fc:	a9 e0       	ldi	r26, 0x09	; 9
			break;
    21fe:	12 c0       	rjmp	.+36     	; 0x2224 <__stack+0x25>
			
		case 2:														// two digits
			aCARRIAGE->index = (10 * (Substring[0] - '0'));
			aCARRIAGE->index += Substring[1] - '0';
    2200:	9a 89       	ldd	r25, Y+18	; 0x12
    2202:	90 51       	subi	r25, 0x10	; 16
			aCARRIAGE->index += (Substring[2] - '0');
			firstData += 2;
			break;
			
		case 2:														// two digits
			aCARRIAGE->index = (10 * (Substring[0] - '0'));
    2204:	89 89       	ldd	r24, Y+17	; 0x11
    2206:	88 0f       	add	r24, r24
    2208:	28 2f       	mov	r18, r24
    220a:	22 0f       	add	r18, r18
    220c:	22 0f       	add	r18, r18
    220e:	82 0f       	add	r24, r18
			aCARRIAGE->index += Substring[1] - '0';
    2210:	89 0f       	add	r24, r25
    2212:	f8 01       	movw	r30, r16
    2214:	82 83       	std	Z+2, r24	; 0x02
			firstData++;
    2216:	a8 e0       	ldi	r26, 0x08	; 8
			break;
    2218:	05 c0       	rjmp	.+10     	; 0x2224 <__stack+0x25>
				
		case 1:														// one digit
			aCARRIAGE->index = Substring[0] - '0';
    221a:	89 89       	ldd	r24, Y+17	; 0x11
    221c:	80 53       	subi	r24, 0x30	; 48
    221e:	f8 01       	movw	r30, r16
    2220:	82 83       	std	Z+2, r24	; 0x02
{	
	uint8_t recievedString[MAX_CARRIAGE_LENGTH];					// string extracted out of the received data
	uint8_t Substring[5];											// extracted substring (hold values)
	uint8_t stringLength;									
	uint8_t counter = 0;
	uint8_t firstData = 7;											// position of the first data character 
    2222:	a7 e0       	ldi	r26, 0x07	; 7
			return 11;												// shouldn't possible
	}
		
	// extract the data and count its length
	for(counter=0;counter<5;counter++){
		if (recievedString[firstData+counter]=='#') break;
    2224:	b0 e0       	ldi	r27, 0x00	; 0
    2226:	fe 01       	movw	r30, r28
    2228:	ea 0f       	add	r30, r26
    222a:	fb 1f       	adc	r31, r27
    222c:	81 81       	ldd	r24, Z+1	; 0x01
    222e:	83 32       	cpi	r24, 0x23	; 35
    2230:	09 f0       	breq	.+2      	; 0x2234 <__stack+0x35>
    2232:	d5 c0       	rjmp	.+426    	; 0x23de <__stack+0x1df>
    2234:	d0 c0       	rjmp	.+416    	; 0x23d6 <__stack+0x1d7>
    2236:	9d 91       	ld	r25, X+
    2238:	93 32       	cpi	r25, 0x23	; 35
    223a:	29 f0       	breq	.+10     	; 0x2246 <__stack+0x47>
		Substring[counter] = recievedString[firstData+counter];
    223c:	91 93       	st	Z+, r25
		default:													// no digits?
			return 11;												// shouldn't possible
	}
		
	// extract the data and count its length
	for(counter=0;counter<5;counter++){
    223e:	8f 5f       	subi	r24, 0xFF	; 255
    2240:	85 30       	cpi	r24, 0x05	; 5
    2242:	c9 f7       	brne	.-14     	; 0x2236 <__stack+0x37>
    2244:	10 c0       	rjmp	.+32     	; 0x2266 <__stack+0x67>
		if (recievedString[firstData+counter]=='#') break;
		Substring[counter] = recievedString[firstData+counter];
	}
	
	// convert the data in the string to a uint_16
	switch (counter) {
    2246:	83 30       	cpi	r24, 0x03	; 3
    2248:	09 f4       	brne	.+2      	; 0x224c <__stack+0x4d>
    224a:	72 c0       	rjmp	.+228    	; 0x2330 <__stack+0x131>
    224c:	38 f4       	brcc	.+14     	; 0x225c <__stack+0x5d>
    224e:	81 30       	cpi	r24, 0x01	; 1
    2250:	09 f4       	brne	.+2      	; 0x2254 <__stack+0x55>
    2252:	a1 c0       	rjmp	.+322    	; 0x2396 <__stack+0x197>
    2254:	82 30       	cpi	r24, 0x02	; 2
    2256:	09 f0       	breq	.+2      	; 0x225a <__stack+0x5b>
    2258:	c0 c0       	rjmp	.+384    	; 0x23da <__stack+0x1db>
    225a:	88 c0       	rjmp	.+272    	; 0x236c <__stack+0x16d>
    225c:	84 30       	cpi	r24, 0x04	; 4
    225e:	e9 f1       	breq	.+122    	; 0x22da <__stack+0xdb>
    2260:	85 30       	cpi	r24, 0x05	; 5
    2262:	09 f0       	breq	.+2      	; 0x2266 <__stack+0x67>
    2264:	ba c0       	rjmp	.+372    	; 0x23da <__stack+0x1db>
		case 5:														// five digits
			aCARRIAGE->data = (10000 * (Substring[0] - '0'));
			aCARRIAGE->data += (1000 * (Substring[1] - '0'));
			aCARRIAGE->data += (100 * (Substring[2] - '0'));
			aCARRIAGE->data += (10 * (Substring[3] - '0'));
			aCARRIAGE->data += (Substring[4] - '0');
    2266:	2d 89       	ldd	r18, Y+21	; 0x15
    2268:	30 e0       	ldi	r19, 0x00	; 0
	switch (counter) {
		
		case 5:														// five digits
			aCARRIAGE->data = (10000 * (Substring[0] - '0'));
			aCARRIAGE->data += (1000 * (Substring[1] - '0'));
			aCARRIAGE->data += (100 * (Substring[2] - '0'));
    226a:	20 5d       	subi	r18, 0xD0	; 208
    226c:	34 41       	sbci	r19, 0x14	; 20
    226e:	8b 89       	ldd	r24, Y+19	; 0x13
			aCARRIAGE->data += (10 * (Substring[3] - '0'));
    2270:	f4 e6       	ldi	r31, 0x64	; 100
    2272:	8f 9f       	mul	r24, r31
    2274:	20 0d       	add	r18, r0
    2276:	31 1d       	adc	r19, r1
    2278:	11 24       	eor	r1, r1
    227a:	8c 89       	ldd	r24, Y+20	; 0x14
    227c:	90 e0       	ldi	r25, 0x00	; 0
    227e:	88 0f       	add	r24, r24
    2280:	99 1f       	adc	r25, r25
    2282:	ac 01       	movw	r20, r24
    2284:	44 0f       	add	r20, r20
    2286:	55 1f       	adc	r21, r21
    2288:	44 0f       	add	r20, r20
    228a:	55 1f       	adc	r21, r21
    228c:	84 0f       	add	r24, r20
    228e:	95 1f       	adc	r25, r21
    2290:	28 0f       	add	r18, r24
    2292:	39 1f       	adc	r19, r25
	
	// convert the data in the string to a uint_16
	switch (counter) {
		
		case 5:														// five digits
			aCARRIAGE->data = (10000 * (Substring[0] - '0'));
    2294:	69 89       	ldd	r22, Y+17	; 0x11
    2296:	70 e0       	ldi	r23, 0x00	; 0
    2298:	60 53       	subi	r22, 0x30	; 48
    229a:	71 09       	sbc	r23, r1
    229c:	40 e1       	ldi	r20, 0x10	; 16
    229e:	57 e2       	ldi	r21, 0x27	; 39
    22a0:	64 9f       	mul	r22, r20
    22a2:	c0 01       	movw	r24, r0
    22a4:	65 9f       	mul	r22, r21
    22a6:	90 0d       	add	r25, r0
    22a8:	74 9f       	mul	r23, r20
    22aa:	90 0d       	add	r25, r0
    22ac:	11 24       	eor	r1, r1
			aCARRIAGE->data += (1000 * (Substring[1] - '0'));
			aCARRIAGE->data += (100 * (Substring[2] - '0'));
			aCARRIAGE->data += (10 * (Substring[3] - '0'));
			aCARRIAGE->data += (Substring[4] - '0');
    22ae:	28 0f       	add	r18, r24
    22b0:	39 1f       	adc	r19, r25
	// convert the data in the string to a uint_16
	switch (counter) {
		
		case 5:														// five digits
			aCARRIAGE->data = (10000 * (Substring[0] - '0'));
			aCARRIAGE->data += (1000 * (Substring[1] - '0'));
    22b2:	6a 89       	ldd	r22, Y+18	; 0x12
    22b4:	70 e0       	ldi	r23, 0x00	; 0
    22b6:	60 53       	subi	r22, 0x30	; 48
    22b8:	71 09       	sbc	r23, r1
    22ba:	48 ee       	ldi	r20, 0xE8	; 232
    22bc:	53 e0       	ldi	r21, 0x03	; 3
    22be:	64 9f       	mul	r22, r20
    22c0:	c0 01       	movw	r24, r0
    22c2:	65 9f       	mul	r22, r21
    22c4:	90 0d       	add	r25, r0
    22c6:	74 9f       	mul	r23, r20
    22c8:	90 0d       	add	r25, r0
    22ca:	11 24       	eor	r1, r1
			aCARRIAGE->data += (100 * (Substring[2] - '0'));
			aCARRIAGE->data += (10 * (Substring[3] - '0'));
			aCARRIAGE->data += (Substring[4] - '0');
    22cc:	82 0f       	add	r24, r18
    22ce:	93 1f       	adc	r25, r19
    22d0:	f8 01       	movw	r30, r16
    22d2:	94 83       	std	Z+4, r25	; 0x04
    22d4:	83 83       	std	Z+3, r24	; 0x03
		
		default:													// no digits?
			return 12;
	}	
		
	return 0;														// everything fine, new carriage received		
    22d6:	80 e0       	ldi	r24, 0x00	; 0
			aCARRIAGE->data = (10000 * (Substring[0] - '0'));
			aCARRIAGE->data += (1000 * (Substring[1] - '0'));
			aCARRIAGE->data += (100 * (Substring[2] - '0'));
			aCARRIAGE->data += (10 * (Substring[3] - '0'));
			aCARRIAGE->data += (Substring[4] - '0');
			break;
    22d8:	95 c0       	rjmp	.+298    	; 0x2404 <__stack+0x205>
		
		case 4:														// four digits
			aCARRIAGE->data = (1000 * (Substring[0] - '0'));
			aCARRIAGE->data += (100 * (Substring[1] - '0'));
			aCARRIAGE->data += (10 * (Substring[2] - '0'));
			aCARRIAGE->data += (Substring[3] - '0');
    22da:	2c 89       	ldd	r18, Y+20	; 0x14
    22dc:	30 e0       	ldi	r19, 0x00	; 0
			break;
		
		case 4:														// four digits
			aCARRIAGE->data = (1000 * (Substring[0] - '0'));
			aCARRIAGE->data += (100 * (Substring[1] - '0'));
			aCARRIAGE->data += (10 * (Substring[2] - '0'));
    22de:	20 5d       	subi	r18, 0xD0	; 208
    22e0:	34 41       	sbci	r19, 0x14	; 20
			aCARRIAGE->data += (Substring[4] - '0');
			break;
		
		case 4:														// four digits
			aCARRIAGE->data = (1000 * (Substring[0] - '0'));
			aCARRIAGE->data += (100 * (Substring[1] - '0'));
    22e2:	8a 89       	ldd	r24, Y+18	; 0x12
			aCARRIAGE->data += (10 * (Substring[2] - '0'));
    22e4:	f4 e6       	ldi	r31, 0x64	; 100
    22e6:	8f 9f       	mul	r24, r31
    22e8:	20 0d       	add	r18, r0
    22ea:	31 1d       	adc	r19, r1
    22ec:	11 24       	eor	r1, r1
    22ee:	8b 89       	ldd	r24, Y+19	; 0x13
    22f0:	90 e0       	ldi	r25, 0x00	; 0
    22f2:	88 0f       	add	r24, r24
    22f4:	99 1f       	adc	r25, r25
    22f6:	ac 01       	movw	r20, r24
    22f8:	44 0f       	add	r20, r20
    22fa:	55 1f       	adc	r21, r21
    22fc:	44 0f       	add	r20, r20
    22fe:	55 1f       	adc	r21, r21
    2300:	84 0f       	add	r24, r20
    2302:	95 1f       	adc	r25, r21
			aCARRIAGE->data += (Substring[3] - '0');
    2304:	28 0f       	add	r18, r24
    2306:	39 1f       	adc	r19, r25
			aCARRIAGE->data += (10 * (Substring[3] - '0'));
			aCARRIAGE->data += (Substring[4] - '0');
			break;
		
		case 4:														// four digits
			aCARRIAGE->data = (1000 * (Substring[0] - '0'));
    2308:	69 89       	ldd	r22, Y+17	; 0x11
    230a:	70 e0       	ldi	r23, 0x00	; 0
    230c:	60 53       	subi	r22, 0x30	; 48
    230e:	71 09       	sbc	r23, r1
    2310:	48 ee       	ldi	r20, 0xE8	; 232
    2312:	53 e0       	ldi	r21, 0x03	; 3
    2314:	64 9f       	mul	r22, r20
    2316:	c0 01       	movw	r24, r0
    2318:	65 9f       	mul	r22, r21
    231a:	90 0d       	add	r25, r0
    231c:	74 9f       	mul	r23, r20
    231e:	90 0d       	add	r25, r0
    2320:	11 24       	eor	r1, r1
			aCARRIAGE->data += (100 * (Substring[1] - '0'));
			aCARRIAGE->data += (10 * (Substring[2] - '0'));
			aCARRIAGE->data += (Substring[3] - '0');
    2322:	82 0f       	add	r24, r18
    2324:	93 1f       	adc	r25, r19
    2326:	f8 01       	movw	r30, r16
    2328:	94 83       	std	Z+4, r25	; 0x04
    232a:	83 83       	std	Z+3, r24	; 0x03
		
		default:													// no digits?
			return 12;
	}	
		
	return 0;														// everything fine, new carriage received		
    232c:	80 e0       	ldi	r24, 0x00	; 0
		case 4:														// four digits
			aCARRIAGE->data = (1000 * (Substring[0] - '0'));
			aCARRIAGE->data += (100 * (Substring[1] - '0'));
			aCARRIAGE->data += (10 * (Substring[2] - '0'));
			aCARRIAGE->data += (Substring[3] - '0');
			break;
    232e:	6a c0       	rjmp	.+212    	; 0x2404 <__stack+0x205>
						
		case 3:														// three digits
			aCARRIAGE->data = (100 * (Substring[0] - '0'));
			aCARRIAGE->data += (10 * (Substring[1] - '0'));
			aCARRIAGE->data += (Substring[2] - '0');
    2330:	2b 89       	ldd	r18, Y+19	; 0x13
    2332:	30 e0       	ldi	r19, 0x00	; 0
			aCARRIAGE->data += (Substring[3] - '0');
			break;
						
		case 3:														// three digits
			aCARRIAGE->data = (100 * (Substring[0] - '0'));
			aCARRIAGE->data += (10 * (Substring[1] - '0'));
    2334:	20 51       	subi	r18, 0x10	; 16
    2336:	32 40       	sbci	r19, 0x02	; 2
    2338:	8a 89       	ldd	r24, Y+18	; 0x12
    233a:	90 e0       	ldi	r25, 0x00	; 0
    233c:	88 0f       	add	r24, r24
    233e:	99 1f       	adc	r25, r25
    2340:	ac 01       	movw	r20, r24
    2342:	44 0f       	add	r20, r20
    2344:	55 1f       	adc	r21, r21
    2346:	44 0f       	add	r20, r20
    2348:	55 1f       	adc	r21, r21
    234a:	84 0f       	add	r24, r20
    234c:	95 1f       	adc	r25, r21
			aCARRIAGE->data += (Substring[2] - '0');
    234e:	82 0f       	add	r24, r18
    2350:	93 1f       	adc	r25, r19
			aCARRIAGE->data += (10 * (Substring[2] - '0'));
			aCARRIAGE->data += (Substring[3] - '0');
			break;
						
		case 3:														// three digits
			aCARRIAGE->data = (100 * (Substring[0] - '0'));
    2352:	29 89       	ldd	r18, Y+17	; 0x11
    2354:	f4 e6       	ldi	r31, 0x64	; 100
    2356:	2f 9f       	mul	r18, r31
    2358:	80 0d       	add	r24, r0
    235a:	91 1d       	adc	r25, r1
    235c:	11 24       	eor	r1, r1
			aCARRIAGE->data += (10 * (Substring[1] - '0'));
			aCARRIAGE->data += (Substring[2] - '0');
    235e:	80 5c       	subi	r24, 0xC0	; 192
    2360:	92 41       	sbci	r25, 0x12	; 18
    2362:	f8 01       	movw	r30, r16
    2364:	94 83       	std	Z+4, r25	; 0x04
    2366:	83 83       	std	Z+3, r24	; 0x03
		
		default:													// no digits?
			return 12;
	}	
		
	return 0;														// everything fine, new carriage received		
    2368:	80 e0       	ldi	r24, 0x00	; 0
						
		case 3:														// three digits
			aCARRIAGE->data = (100 * (Substring[0] - '0'));
			aCARRIAGE->data += (10 * (Substring[1] - '0'));
			aCARRIAGE->data += (Substring[2] - '0');
			break;
    236a:	4c c0       	rjmp	.+152    	; 0x2404 <__stack+0x205>
				
		case 2:														// two digits
			aCARRIAGE->data = (10 * (Substring[0] - '0'));
			aCARRIAGE->data += Substring[1] - '0';
    236c:	4a 89       	ldd	r20, Y+18	; 0x12
			aCARRIAGE->data += (10 * (Substring[1] - '0'));
			aCARRIAGE->data += (Substring[2] - '0');
			break;
				
		case 2:														// two digits
			aCARRIAGE->data = (10 * (Substring[0] - '0'));
    236e:	89 89       	ldd	r24, Y+17	; 0x11
    2370:	90 e0       	ldi	r25, 0x00	; 0
    2372:	88 0f       	add	r24, r24
    2374:	99 1f       	adc	r25, r25
    2376:	9c 01       	movw	r18, r24
    2378:	22 0f       	add	r18, r18
    237a:	33 1f       	adc	r19, r19
    237c:	22 0f       	add	r18, r18
    237e:	33 1f       	adc	r19, r19
    2380:	82 0f       	add	r24, r18
    2382:	93 1f       	adc	r25, r19
    2384:	84 0f       	add	r24, r20
    2386:	91 1d       	adc	r25, r1
			aCARRIAGE->data += Substring[1] - '0';
    2388:	80 51       	subi	r24, 0x10	; 16
    238a:	92 40       	sbci	r25, 0x02	; 2
    238c:	f8 01       	movw	r30, r16
    238e:	94 83       	std	Z+4, r25	; 0x04
    2390:	83 83       	std	Z+3, r24	; 0x03
		
		default:													// no digits?
			return 12;
	}	
		
	return 0;														// everything fine, new carriage received		
    2392:	80 e0       	ldi	r24, 0x00	; 0
			break;
				
		case 2:														// two digits
			aCARRIAGE->data = (10 * (Substring[0] - '0'));
			aCARRIAGE->data += Substring[1] - '0';
			break;
    2394:	37 c0       	rjmp	.+110    	; 0x2404 <__stack+0x205>
				
		case 1:														// one digit
			aCARRIAGE->data = Substring[0] - '0';
    2396:	89 89       	ldd	r24, Y+17	; 0x11
    2398:	90 e0       	ldi	r25, 0x00	; 0
    239a:	c0 97       	sbiw	r24, 0x30	; 48
    239c:	f8 01       	movw	r30, r16
    239e:	94 83       	std	Z+4, r25	; 0x04
    23a0:	83 83       	std	Z+3, r24	; 0x03
		
		default:													// no digits?
			return 12;
	}	
		
	return 0;														// everything fine, new carriage received		
    23a2:	80 e0       	ldi	r24, 0x00	; 0
			aCARRIAGE->data += Substring[1] - '0';
			break;
				
		case 1:														// one digit
			aCARRIAGE->data = Substring[0] - '0';
			break;
    23a4:	2f c0       	rjmp	.+94     	; 0x2404 <__stack+0x205>
	uint8_t thirdHashtagPosition = 0;								// position of the third '#'
	
	// use the function for receiving a string	
	stringLength = serialport_getLastString(recievedString, MAX_CARRIAGE_LENGTH);
		
	if(stringLength==0) return 1;									// error code "1" - no new carriage
    23a6:	81 e0       	ldi	r24, 0x01	; 1
    23a8:	2d c0       	rjmp	.+90     	; 0x2404 <__stack+0x205>
	if(stringLength<10) return 2;									// error code "2" - string is to short
    23aa:	82 e0       	ldi	r24, 0x02	; 2
    23ac:	2b c0       	rjmp	.+86     	; 0x2404 <__stack+0x205>
	if(stringLength>MAX_CARRIAGE_LENGTH) return 3;					// error code "3" - string is to long!!!
    23ae:	83 e0       	ldi	r24, 0x03	; 3
    23b0:	29 c0       	rjmp	.+82     	; 0x2404 <__stack+0x205>
	// check the format of the received string
	countHashtag = 0;		
	for(counter=0;counter<stringLength;counter++){					// for each character
		if(recievedString[counter]=='#') {							// character is a '#'
			countHashtag++;
			if(countHashtag==1 && counter!=1) return 4;				// first # on wrong position
    23b2:	84 e0       	ldi	r24, 0x04	; 4
    23b4:	27 c0       	rjmp	.+78     	; 0x2404 <__stack+0x205>
			if(countHashtag==2 && counter!=4) return 5;				// second # on wrong position
    23b6:	85 e0       	ldi	r24, 0x05	; 5
    23b8:	25 c0       	rjmp	.+74     	; 0x2404 <__stack+0x205>
			if(countHashtag==3 && counter<6) return 6;				// third # to early
    23ba:	86 e0       	ldi	r24, 0x06	; 6
    23bc:	23 c0       	rjmp	.+70     	; 0x2404 <__stack+0x205>
			if(countHashtag==3 && counter>8) return 7;				// third # to late
    23be:	87 e0       	ldi	r24, 0x07	; 7
    23c0:	21 c0       	rjmp	.+66     	; 0x2404 <__stack+0x205>
			if(countHashtag==3) thirdHashtagPosition = counter;		
			if(countHashtag==5 && (counter-thirdHashtagPosition)<2) return 8;	// fourth # to early
    23c2:	88 e0       	ldi	r24, 0x08	; 8
    23c4:	1f c0       	rjmp	.+62     	; 0x2404 <__stack+0x205>
			if(countHashtag==5 && (counter-thirdHashtagPosition)>6) return 9;	// fourth # to late						
    23c6:	89 e0       	ldi	r24, 0x09	; 9
    23c8:	1d c0       	rjmp	.+58     	; 0x2404 <__stack+0x205>
		}					
	}
	if(countHashtag!=4) return 10;									// error code "4" - format does not match
    23ca:	8a e0       	ldi	r24, 0x0A	; 10
    23cc:	1b c0       	rjmp	.+54     	; 0x2404 <__stack+0x205>
		case 1:														// one digit
			aCARRIAGE->index = Substring[0] - '0';
			break;
				
		default:													// no digits?
			return 11;												// shouldn't possible
    23ce:	8b e0       	ldi	r24, 0x0B	; 11
    23d0:	19 c0       	rjmp	.+50     	; 0x2404 <__stack+0x205>
    23d2:	8b e0       	ldi	r24, 0x0B	; 11
    23d4:	17 c0       	rjmp	.+46     	; 0x2404 <__stack+0x205>
		case 1:														// one digit
			aCARRIAGE->data = Substring[0] - '0';
			break;
		
		default:													// no digits?
			return 12;
    23d6:	8c e0       	ldi	r24, 0x0C	; 12
    23d8:	15 c0       	rjmp	.+42     	; 0x2404 <__stack+0x205>
    23da:	8c e0       	ldi	r24, 0x0C	; 12
    23dc:	13 c0       	rjmp	.+38     	; 0x2404 <__stack+0x205>
	}
		
	// extract the data and count its length
	for(counter=0;counter<5;counter++){
		if (recievedString[firstData+counter]=='#') break;
		Substring[counter] = recievedString[firstData+counter];
    23de:	89 8b       	std	Y+17, r24	; 0x11
}


// This function read out the last received string (witch should have the carriage format) and convert it to a carriage.
// It is protected against wrong string codes. See error code table in the header. It uses the serialport_getLastString(..) function.
uint8_t serialport_getLastCarriage(CARRIAGE* aCARRIAGE)
    23e0:	ac 0f       	add	r26, r28
    23e2:	bd 1f       	adc	r27, r29
    23e4:	12 96       	adiw	r26, 0x02	; 2
    23e6:	fe 01       	movw	r30, r28
    23e8:	72 96       	adiw	r30, 0x12	; 18
		default:													// no digits?
			return 11;												// shouldn't possible
	}
		
	// extract the data and count its length
	for(counter=0;counter<5;counter++){
    23ea:	81 e0       	ldi	r24, 0x01	; 1
    23ec:	24 cf       	rjmp	.-440    	; 0x2236 <__stack+0x37>
	aCARRIAGE->id = (10 * (recievedString[2] - '0') + recievedString[3] - '0');	// store the ID
	
	// extract the number and count its length	
	for(counter=0;counter<3;counter++){			
		if (recievedString[5+counter]=='#') break;
		Substring[counter] = recievedString[5+counter];			
    23ee:	89 8b       	std	Y+17, r24	; 0x11
	aCARRIAGE->dA = recievedString[0] - '0';						// store the DA identifier							
	aCARRIAGE->id = (10 * (recievedString[2] - '0') + recievedString[3] - '0');	// store the ID
	
	// extract the number and count its length	
	for(counter=0;counter<3;counter++){			
		if (recievedString[5+counter]=='#') break;
    23f0:	8f 81       	ldd	r24, Y+7	; 0x07
    23f2:	83 32       	cpi	r24, 0x23	; 35
    23f4:	09 f4       	brne	.+2      	; 0x23f8 <__stack+0x1f9>
    23f6:	e6 ce       	rjmp	.-564    	; 0x21c4 <serialport_getLastCarriage+0xbe>
		Substring[counter] = recievedString[5+counter];			
    23f8:	8a 8b       	std	Y+18, r24	; 0x12
	aCARRIAGE->dA = recievedString[0] - '0';						// store the DA identifier							
	aCARRIAGE->id = (10 * (recievedString[2] - '0') + recievedString[3] - '0');	// store the ID
	
	// extract the number and count its length	
	for(counter=0;counter<3;counter++){			
		if (recievedString[5+counter]=='#') break;
    23fa:	88 85       	ldd	r24, Y+8	; 0x08
    23fc:	83 32       	cpi	r24, 0x23	; 35
    23fe:	09 f0       	breq	.+2      	; 0x2402 <__stack+0x203>
    2400:	ec ce       	rjmp	.-552    	; 0x21da <serialport_getLastCarriage+0xd4>
    2402:	e2 ce       	rjmp	.-572    	; 0x21c8 <serialport_getLastCarriage+0xc2>
		default:													// no digits?
			return 12;
	}	
		
	return 0;														// everything fine, new carriage received		
}
    2404:	65 96       	adiw	r28, 0x15	; 21
    2406:	0f b6       	in	r0, 0x3f	; 63
    2408:	f8 94       	cli
    240a:	de bf       	out	0x3e, r29	; 62
    240c:	0f be       	out	0x3f, r0	; 63
    240e:	cd bf       	out	0x3d, r28	; 61
    2410:	df 91       	pop	r29
    2412:	cf 91       	pop	r28
    2414:	1f 91       	pop	r17
    2416:	0f 91       	pop	r16
    2418:	08 95       	ret

0000241a <serialport_writeCarriage>:


// This function send a carriage as string in the carriage format.
void serialport_writeCarriage(CARRIAGE* aCARRIAGE)
{
    241a:	ff 92       	push	r15
    241c:	0f 93       	push	r16
    241e:	1f 93       	push	r17
    2420:	cf 93       	push	r28
    2422:	df 93       	push	r29
    2424:	cd b7       	in	r28, 0x3d	; 61
    2426:	de b7       	in	r29, 0x3e	; 62
    2428:	60 97       	sbiw	r28, 0x10	; 16
    242a:	0f b6       	in	r0, 0x3f	; 63
    242c:	f8 94       	cli
    242e:	de bf       	out	0x3e, r29	; 62
    2430:	0f be       	out	0x3f, r0	; 63
    2432:	cd bf       	out	0x3d, r28	; 61
    2434:	fc 01       	movw	r30, r24
	uint8_t transmitString[16];
	uint8_t stringLength = 0;
	uint8_t numberDigit = 0;
	uint8_t dataDigit = 0;
	
	transmitString[0] = aCARRIAGE->dA + '0';
    2436:	80 81       	ld	r24, Z
    2438:	80 5d       	subi	r24, 0xD0	; 208
    243a:	89 83       	std	Y+1, r24	; 0x01
	transmitString[1] = '#';
    243c:	83 e2       	ldi	r24, 0x23	; 35
    243e:	8a 83       	std	Y+2, r24	; 0x02
	transmitString[2] = (aCARRIAGE->id / 10) + '0';
    2440:	91 81       	ldd	r25, Z+1	; 0x01
    2442:	2d ec       	ldi	r18, 0xCD	; 205
    2444:	92 9f       	mul	r25, r18
    2446:	21 2d       	mov	r18, r1
    2448:	11 24       	eor	r1, r1
    244a:	26 95       	lsr	r18
    244c:	26 95       	lsr	r18
    244e:	26 95       	lsr	r18
    2450:	32 2f       	mov	r19, r18
    2452:	30 5d       	subi	r19, 0xD0	; 208
    2454:	3b 83       	std	Y+3, r19	; 0x03
	transmitString[3] = (aCARRIAGE->id % 10) + '0';
    2456:	22 0f       	add	r18, r18
    2458:	32 2f       	mov	r19, r18
    245a:	33 0f       	add	r19, r19
    245c:	33 0f       	add	r19, r19
    245e:	23 0f       	add	r18, r19
    2460:	92 1b       	sub	r25, r18
    2462:	90 5d       	subi	r25, 0xD0	; 208
    2464:	9c 83       	std	Y+4, r25	; 0x04
	transmitString[4] = '#';
    2466:	8d 83       	std	Y+5, r24	; 0x05
	
	if (aCARRIAGE->index < 10)										// one digit
    2468:	82 81       	ldd	r24, Z+2	; 0x02
    246a:	8a 30       	cpi	r24, 0x0A	; 10
    246c:	28 f4       	brcc	.+10     	; 0x2478 <serialport_writeCarriage+0x5e>
	{
		numberDigit = 1;
		transmitString[5] = aCARRIAGE->index + '0';
    246e:	80 5d       	subi	r24, 0xD0	; 208
    2470:	8e 83       	std	Y+6, r24	; 0x06
	transmitString[3] = (aCARRIAGE->id % 10) + '0';
	transmitString[4] = '#';
	
	if (aCARRIAGE->index < 10)										// one digit
	{
		numberDigit = 1;
    2472:	ff 24       	eor	r15, r15
    2474:	f3 94       	inc	r15
    2476:	41 c0       	rjmp	.+130    	; 0x24fa <serialport_writeCarriage+0xe0>
		transmitString[5] = aCARRIAGE->index + '0';
						
	} else if (aCARRIAGE->index < 100)								// two digits
    2478:	84 36       	cpi	r24, 0x64	; 100
    247a:	b0 f4       	brcc	.+44     	; 0x24a8 <serialport_writeCarriage+0x8e>
	{
		numberDigit = 2;
		transmitString[5] = (aCARRIAGE->index / 10) + '0';
    247c:	9d ec       	ldi	r25, 0xCD	; 205
    247e:	89 9f       	mul	r24, r25
    2480:	91 2d       	mov	r25, r1
    2482:	11 24       	eor	r1, r1
    2484:	96 95       	lsr	r25
    2486:	96 95       	lsr	r25
    2488:	96 95       	lsr	r25
    248a:	29 2f       	mov	r18, r25
    248c:	20 5d       	subi	r18, 0xD0	; 208
    248e:	2e 83       	std	Y+6, r18	; 0x06
		transmitString[6] = (aCARRIAGE->index % 10) + '0';	
    2490:	99 0f       	add	r25, r25
    2492:	29 2f       	mov	r18, r25
    2494:	22 0f       	add	r18, r18
    2496:	22 0f       	add	r18, r18
    2498:	92 0f       	add	r25, r18
    249a:	89 1b       	sub	r24, r25
    249c:	80 5d       	subi	r24, 0xD0	; 208
    249e:	8f 83       	std	Y+7, r24	; 0x07
		numberDigit = 1;
		transmitString[5] = aCARRIAGE->index + '0';
						
	} else if (aCARRIAGE->index < 100)								// two digits
	{
		numberDigit = 2;
    24a0:	68 94       	set
    24a2:	ff 24       	eor	r15, r15
    24a4:	f1 f8       	bld	r15, 1
    24a6:	29 c0       	rjmp	.+82     	; 0x24fa <serialport_writeCarriage+0xe0>
		transmitString[6] = (aCARRIAGE->index % 10) + '0';	
					
	} else															// three digits
	{
		numberDigit = 3;
		transmitString[5] = (aCARRIAGE->index / 100) + '0';
    24a8:	99 e2       	ldi	r25, 0x29	; 41
    24aa:	89 9f       	mul	r24, r25
    24ac:	91 2d       	mov	r25, r1
    24ae:	11 24       	eor	r1, r1
    24b0:	92 95       	swap	r25
    24b2:	9f 70       	andi	r25, 0x0F	; 15
    24b4:	29 2f       	mov	r18, r25
    24b6:	20 5d       	subi	r18, 0xD0	; 208
    24b8:	2e 83       	std	Y+6, r18	; 0x06
		transmitString[6] = ((aCARRIAGE->index % 100) / 10) + '0';
    24ba:	28 2f       	mov	r18, r24
    24bc:	34 e6       	ldi	r19, 0x64	; 100
    24be:	93 9f       	mul	r25, r19
    24c0:	20 19       	sub	r18, r0
    24c2:	11 24       	eor	r1, r1
    24c4:	9d ec       	ldi	r25, 0xCD	; 205
    24c6:	29 9f       	mul	r18, r25
    24c8:	21 2d       	mov	r18, r1
    24ca:	11 24       	eor	r1, r1
    24cc:	26 95       	lsr	r18
    24ce:	26 95       	lsr	r18
    24d0:	26 95       	lsr	r18
    24d2:	20 5d       	subi	r18, 0xD0	; 208
    24d4:	2f 83       	std	Y+7, r18	; 0x07
		transmitString[7] = (aCARRIAGE->index % 10) + '0';
    24d6:	89 9f       	mul	r24, r25
    24d8:	91 2d       	mov	r25, r1
    24da:	11 24       	eor	r1, r1
    24dc:	96 95       	lsr	r25
    24de:	96 95       	lsr	r25
    24e0:	96 95       	lsr	r25
    24e2:	99 0f       	add	r25, r25
    24e4:	29 2f       	mov	r18, r25
    24e6:	22 0f       	add	r18, r18
    24e8:	22 0f       	add	r18, r18
    24ea:	92 0f       	add	r25, r18
    24ec:	89 1b       	sub	r24, r25
    24ee:	80 5d       	subi	r24, 0xD0	; 208
    24f0:	88 87       	std	Y+8, r24	; 0x08
		transmitString[5] = (aCARRIAGE->index / 10) + '0';
		transmitString[6] = (aCARRIAGE->index % 10) + '0';	
					
	} else															// three digits
	{
		numberDigit = 3;
    24f2:	0f 2e       	mov	r0, r31
    24f4:	f3 e0       	ldi	r31, 0x03	; 3
    24f6:	ff 2e       	mov	r15, r31
    24f8:	f0 2d       	mov	r31, r0
		transmitString[5] = (aCARRIAGE->index / 100) + '0';
		transmitString[6] = ((aCARRIAGE->index % 100) / 10) + '0';
		transmitString[7] = (aCARRIAGE->index % 10) + '0';
	}
	
	transmitString[numberDigit+5] = '#';
    24fa:	0f 2d       	mov	r16, r15
    24fc:	10 e0       	ldi	r17, 0x00	; 0
    24fe:	de 01       	movw	r26, r28
    2500:	a0 0f       	add	r26, r16
    2502:	b1 1f       	adc	r27, r17
    2504:	83 e2       	ldi	r24, 0x23	; 35
    2506:	16 96       	adiw	r26, 0x06	; 6
    2508:	8c 93       	st	X, r24
    250a:	16 97       	sbiw	r26, 0x06	; 6
	
	if (aCARRIAGE->data < 10)										// one digit
    250c:	43 81       	ldd	r20, Z+3	; 0x03
    250e:	54 81       	ldd	r21, Z+4	; 0x04
    2510:	4a 30       	cpi	r20, 0x0A	; 10
    2512:	51 05       	cpc	r21, r1
    2514:	28 f4       	brcc	.+10     	; 0x2520 <serialport_writeCarriage+0x106>
	{
		dataDigit = 1;
		transmitString[numberDigit+6] = aCARRIAGE->data + '0';
    2516:	fd 01       	movw	r30, r26
    2518:	40 5d       	subi	r20, 0xD0	; 208
    251a:	47 83       	std	Z+7, r20	; 0x07
	
	transmitString[numberDigit+5] = '#';
	
	if (aCARRIAGE->data < 10)										// one digit
	{
		dataDigit = 1;
    251c:	81 e0       	ldi	r24, 0x01	; 1
    251e:	7d c1       	rjmp	.+762    	; 0x281a <serialport_writeCarriage+0x400>
		transmitString[numberDigit+6] = aCARRIAGE->data + '0';
		
	} else if (aCARRIAGE->data < 100)								// two digits
    2520:	44 36       	cpi	r20, 0x64	; 100
    2522:	51 05       	cpc	r21, r1
    2524:	20 f5       	brcc	.+72     	; 0x256e <serialport_writeCarriage+0x154>
	{
		dataDigit = 2;
		transmitString[numberDigit+6] = (aCARRIAGE->data / 10) + '0';
    2526:	fe 01       	movw	r30, r28
    2528:	e0 0f       	add	r30, r16
    252a:	f1 1f       	adc	r31, r17
    252c:	9a 01       	movw	r18, r20
    252e:	ad ec       	ldi	r26, 0xCD	; 205
    2530:	bc ec       	ldi	r27, 0xCC	; 204
    2532:	dc d5       	rcall	.+3000   	; 0x30ec <__umulhisi3>
    2534:	96 95       	lsr	r25
    2536:	87 95       	ror	r24
    2538:	96 95       	lsr	r25
    253a:	87 95       	ror	r24
    253c:	96 95       	lsr	r25
    253e:	87 95       	ror	r24
    2540:	28 2f       	mov	r18, r24
    2542:	20 5d       	subi	r18, 0xD0	; 208
    2544:	27 83       	std	Z+7, r18	; 0x07
		transmitString[numberDigit+7] = (aCARRIAGE->data % 10) + '0';
    2546:	fe 01       	movw	r30, r28
    2548:	e0 0f       	add	r30, r16
    254a:	f1 1f       	adc	r31, r17
    254c:	9c 01       	movw	r18, r24
    254e:	22 0f       	add	r18, r18
    2550:	33 1f       	adc	r19, r19
    2552:	88 0f       	add	r24, r24
    2554:	99 1f       	adc	r25, r25
    2556:	88 0f       	add	r24, r24
    2558:	99 1f       	adc	r25, r25
    255a:	88 0f       	add	r24, r24
    255c:	99 1f       	adc	r25, r25
    255e:	82 0f       	add	r24, r18
    2560:	93 1f       	adc	r25, r19
    2562:	48 1b       	sub	r20, r24
    2564:	59 0b       	sbc	r21, r25
    2566:	40 5d       	subi	r20, 0xD0	; 208
    2568:	40 87       	std	Z+8, r20	; 0x08
		dataDigit = 1;
		transmitString[numberDigit+6] = aCARRIAGE->data + '0';
		
	} else if (aCARRIAGE->data < 100)								// two digits
	{
		dataDigit = 2;
    256a:	82 e0       	ldi	r24, 0x02	; 2
    256c:	56 c1       	rjmp	.+684    	; 0x281a <serialport_writeCarriage+0x400>
		transmitString[numberDigit+6] = (aCARRIAGE->data / 10) + '0';
		transmitString[numberDigit+7] = (aCARRIAGE->data % 10) + '0';
		
	} else if (aCARRIAGE->data < 1000)								// three digits
    256e:	48 3e       	cpi	r20, 0xE8	; 232
    2570:	83 e0       	ldi	r24, 0x03	; 3
    2572:	58 07       	cpc	r21, r24
    2574:	08 f0       	brcs	.+2      	; 0x2578 <serialport_writeCarriage+0x15e>
    2576:	44 c0       	rjmp	.+136    	; 0x2600 <serialport_writeCarriage+0x1e6>
	{
		dataDigit = 3;
		transmitString[numberDigit+6] = (aCARRIAGE->data / 100) + '0';
    2578:	fe 01       	movw	r30, r28
    257a:	e0 0f       	add	r30, r16
    257c:	f1 1f       	adc	r31, r17
    257e:	9a 01       	movw	r18, r20
    2580:	36 95       	lsr	r19
    2582:	27 95       	ror	r18
    2584:	36 95       	lsr	r19
    2586:	27 95       	ror	r18
    2588:	ab e7       	ldi	r26, 0x7B	; 123
    258a:	b4 e1       	ldi	r27, 0x14	; 20
    258c:	af d5       	rcall	.+2910   	; 0x30ec <__umulhisi3>
    258e:	96 95       	lsr	r25
    2590:	87 95       	ror	r24
    2592:	28 2f       	mov	r18, r24
    2594:	20 5d       	subi	r18, 0xD0	; 208
    2596:	27 83       	std	Z+7, r18	; 0x07
		transmitString[numberDigit+7] = ((aCARRIAGE->data % 100) / 10) + '0';
    2598:	fe 01       	movw	r30, r28
    259a:	e0 0f       	add	r30, r16
    259c:	f1 1f       	adc	r31, r17
    259e:	64 e6       	ldi	r22, 0x64	; 100
    25a0:	68 9f       	mul	r22, r24
    25a2:	90 01       	movw	r18, r0
    25a4:	69 9f       	mul	r22, r25
    25a6:	30 0d       	add	r19, r0
    25a8:	11 24       	eor	r1, r1
    25aa:	ca 01       	movw	r24, r20
    25ac:	82 1b       	sub	r24, r18
    25ae:	93 0b       	sbc	r25, r19
    25b0:	9c 01       	movw	r18, r24
    25b2:	ad ec       	ldi	r26, 0xCD	; 205
    25b4:	bc ec       	ldi	r27, 0xCC	; 204
    25b6:	9a d5       	rcall	.+2868   	; 0x30ec <__umulhisi3>
    25b8:	96 95       	lsr	r25
    25ba:	87 95       	ror	r24
    25bc:	96 95       	lsr	r25
    25be:	87 95       	ror	r24
    25c0:	96 95       	lsr	r25
    25c2:	87 95       	ror	r24
    25c4:	80 5d       	subi	r24, 0xD0	; 208
    25c6:	80 87       	std	Z+8, r24	; 0x08
		transmitString[numberDigit+8] = (aCARRIAGE->data % 10) + '0';
    25c8:	fe 01       	movw	r30, r28
    25ca:	e0 0f       	add	r30, r16
    25cc:	f1 1f       	adc	r31, r17
    25ce:	9a 01       	movw	r18, r20
    25d0:	8d d5       	rcall	.+2842   	; 0x30ec <__umulhisi3>
    25d2:	96 95       	lsr	r25
    25d4:	87 95       	ror	r24
    25d6:	96 95       	lsr	r25
    25d8:	87 95       	ror	r24
    25da:	96 95       	lsr	r25
    25dc:	87 95       	ror	r24
    25de:	9c 01       	movw	r18, r24
    25e0:	22 0f       	add	r18, r18
    25e2:	33 1f       	adc	r19, r19
    25e4:	88 0f       	add	r24, r24
    25e6:	99 1f       	adc	r25, r25
    25e8:	88 0f       	add	r24, r24
    25ea:	99 1f       	adc	r25, r25
    25ec:	88 0f       	add	r24, r24
    25ee:	99 1f       	adc	r25, r25
    25f0:	82 0f       	add	r24, r18
    25f2:	93 1f       	adc	r25, r19
    25f4:	48 1b       	sub	r20, r24
    25f6:	59 0b       	sbc	r21, r25
    25f8:	40 5d       	subi	r20, 0xD0	; 208
    25fa:	41 87       	std	Z+9, r20	; 0x09
		transmitString[numberDigit+6] = (aCARRIAGE->data / 10) + '0';
		transmitString[numberDigit+7] = (aCARRIAGE->data % 10) + '0';
		
	} else if (aCARRIAGE->data < 1000)								// three digits
	{
		dataDigit = 3;
    25fc:	83 e0       	ldi	r24, 0x03	; 3
    25fe:	0d c1       	rjmp	.+538    	; 0x281a <serialport_writeCarriage+0x400>
		transmitString[numberDigit+6] = (aCARRIAGE->data / 100) + '0';
		transmitString[numberDigit+7] = ((aCARRIAGE->data % 100) / 10) + '0';
		transmitString[numberDigit+8] = (aCARRIAGE->data % 10) + '0';
		
	} else if (aCARRIAGE->data < 10000)								// four digits
    2600:	40 31       	cpi	r20, 0x10	; 16
    2602:	97 e2       	ldi	r25, 0x27	; 39
    2604:	59 07       	cpc	r21, r25
    2606:	08 f0       	brcs	.+2      	; 0x260a <serialport_writeCarriage+0x1f0>
    2608:	6d c0       	rjmp	.+218    	; 0x26e4 <serialport_writeCarriage+0x2ca>
	{
		dataDigit = 4;
		transmitString[numberDigit+6] = (aCARRIAGE->data / 1000) + '0';
    260a:	fe 01       	movw	r30, r28
    260c:	e0 0f       	add	r30, r16
    260e:	f1 1f       	adc	r31, r17
    2610:	9a 01       	movw	r18, r20
    2612:	36 95       	lsr	r19
    2614:	27 95       	ror	r18
    2616:	36 95       	lsr	r19
    2618:	27 95       	ror	r18
    261a:	36 95       	lsr	r19
    261c:	27 95       	ror	r18
    261e:	a5 ec       	ldi	r26, 0xC5	; 197
    2620:	b0 e2       	ldi	r27, 0x20	; 32
    2622:	64 d5       	rcall	.+2760   	; 0x30ec <__umulhisi3>
    2624:	92 95       	swap	r25
    2626:	82 95       	swap	r24
    2628:	8f 70       	andi	r24, 0x0F	; 15
    262a:	89 27       	eor	r24, r25
    262c:	9f 70       	andi	r25, 0x0F	; 15
    262e:	89 27       	eor	r24, r25
    2630:	28 2f       	mov	r18, r24
    2632:	20 5d       	subi	r18, 0xD0	; 208
    2634:	27 83       	std	Z+7, r18	; 0x07
		transmitString[numberDigit+7] = ((aCARRIAGE->data % 1000) / 100) + '0';
    2636:	fe 01       	movw	r30, r28
    2638:	e0 0f       	add	r30, r16
    263a:	f1 1f       	adc	r31, r17
    263c:	68 ee       	ldi	r22, 0xE8	; 232
    263e:	73 e0       	ldi	r23, 0x03	; 3
    2640:	86 9f       	mul	r24, r22
    2642:	90 01       	movw	r18, r0
    2644:	87 9f       	mul	r24, r23
    2646:	30 0d       	add	r19, r0
    2648:	96 9f       	mul	r25, r22
    264a:	30 0d       	add	r19, r0
    264c:	11 24       	eor	r1, r1
    264e:	ca 01       	movw	r24, r20
    2650:	82 1b       	sub	r24, r18
    2652:	93 0b       	sbc	r25, r19
    2654:	9c 01       	movw	r18, r24
    2656:	36 95       	lsr	r19
    2658:	27 95       	ror	r18
    265a:	36 95       	lsr	r19
    265c:	27 95       	ror	r18
    265e:	ab e7       	ldi	r26, 0x7B	; 123
    2660:	b4 e1       	ldi	r27, 0x14	; 20
    2662:	44 d5       	rcall	.+2696   	; 0x30ec <__umulhisi3>
    2664:	96 95       	lsr	r25
    2666:	87 95       	ror	r24
    2668:	80 5d       	subi	r24, 0xD0	; 208
    266a:	80 87       	std	Z+8, r24	; 0x08
		transmitString[numberDigit+8] = ((aCARRIAGE->data % 100) / 10) + '0';
    266c:	fe 01       	movw	r30, r28
    266e:	e0 0f       	add	r30, r16
    2670:	f1 1f       	adc	r31, r17
    2672:	9a 01       	movw	r18, r20
    2674:	36 95       	lsr	r19
    2676:	27 95       	ror	r18
    2678:	36 95       	lsr	r19
    267a:	27 95       	ror	r18
    267c:	37 d5       	rcall	.+2670   	; 0x30ec <__umulhisi3>
    267e:	96 95       	lsr	r25
    2680:	87 95       	ror	r24
    2682:	64 e6       	ldi	r22, 0x64	; 100
    2684:	68 9f       	mul	r22, r24
    2686:	90 01       	movw	r18, r0
    2688:	69 9f       	mul	r22, r25
    268a:	30 0d       	add	r19, r0
    268c:	11 24       	eor	r1, r1
    268e:	ca 01       	movw	r24, r20
    2690:	82 1b       	sub	r24, r18
    2692:	93 0b       	sbc	r25, r19
    2694:	9c 01       	movw	r18, r24
    2696:	ad ec       	ldi	r26, 0xCD	; 205
    2698:	bc ec       	ldi	r27, 0xCC	; 204
    269a:	28 d5       	rcall	.+2640   	; 0x30ec <__umulhisi3>
    269c:	96 95       	lsr	r25
    269e:	87 95       	ror	r24
    26a0:	96 95       	lsr	r25
    26a2:	87 95       	ror	r24
    26a4:	96 95       	lsr	r25
    26a6:	87 95       	ror	r24
    26a8:	80 5d       	subi	r24, 0xD0	; 208
    26aa:	81 87       	std	Z+9, r24	; 0x09
		transmitString[numberDigit+9] = (aCARRIAGE->data % 10) + '0';
    26ac:	fe 01       	movw	r30, r28
    26ae:	e0 0f       	add	r30, r16
    26b0:	f1 1f       	adc	r31, r17
    26b2:	9a 01       	movw	r18, r20
    26b4:	1b d5       	rcall	.+2614   	; 0x30ec <__umulhisi3>
    26b6:	96 95       	lsr	r25
    26b8:	87 95       	ror	r24
    26ba:	96 95       	lsr	r25
    26bc:	87 95       	ror	r24
    26be:	96 95       	lsr	r25
    26c0:	87 95       	ror	r24
    26c2:	9c 01       	movw	r18, r24
    26c4:	22 0f       	add	r18, r18
    26c6:	33 1f       	adc	r19, r19
    26c8:	88 0f       	add	r24, r24
    26ca:	99 1f       	adc	r25, r25
    26cc:	88 0f       	add	r24, r24
    26ce:	99 1f       	adc	r25, r25
    26d0:	88 0f       	add	r24, r24
    26d2:	99 1f       	adc	r25, r25
    26d4:	82 0f       	add	r24, r18
    26d6:	93 1f       	adc	r25, r19
    26d8:	48 1b       	sub	r20, r24
    26da:	59 0b       	sbc	r21, r25
    26dc:	40 5d       	subi	r20, 0xD0	; 208
    26de:	42 87       	std	Z+10, r20	; 0x0a
		transmitString[numberDigit+7] = ((aCARRIAGE->data % 100) / 10) + '0';
		transmitString[numberDigit+8] = (aCARRIAGE->data % 10) + '0';
		
	} else if (aCARRIAGE->data < 10000)								// four digits
	{
		dataDigit = 4;
    26e0:	84 e0       	ldi	r24, 0x04	; 4
    26e2:	9b c0       	rjmp	.+310    	; 0x281a <serialport_writeCarriage+0x400>
		transmitString[numberDigit+9] = (aCARRIAGE->data % 10) + '0';
		
	} else															// five digits
	{
		dataDigit = 5;
		transmitString[numberDigit+6] = (aCARRIAGE->data / 10000) + '0';
    26e4:	fe 01       	movw	r30, r28
    26e6:	e0 0f       	add	r30, r16
    26e8:	f1 1f       	adc	r31, r17
    26ea:	9a 01       	movw	r18, r20
    26ec:	32 95       	swap	r19
    26ee:	22 95       	swap	r18
    26f0:	2f 70       	andi	r18, 0x0F	; 15
    26f2:	23 27       	eor	r18, r19
    26f4:	3f 70       	andi	r19, 0x0F	; 15
    26f6:	23 27       	eor	r18, r19
    26f8:	a7 e4       	ldi	r26, 0x47	; 71
    26fa:	b3 e0       	ldi	r27, 0x03	; 3
    26fc:	f7 d4       	rcall	.+2542   	; 0x30ec <__umulhisi3>
    26fe:	96 95       	lsr	r25
    2700:	87 95       	ror	r24
    2702:	96 95       	lsr	r25
    2704:	87 95       	ror	r24
    2706:	96 95       	lsr	r25
    2708:	87 95       	ror	r24
    270a:	28 2f       	mov	r18, r24
    270c:	20 5d       	subi	r18, 0xD0	; 208
    270e:	27 83       	std	Z+7, r18	; 0x07
		transmitString[numberDigit+7] = ((aCARRIAGE->data % 10000) / 1000) + '0';
    2710:	fe 01       	movw	r30, r28
    2712:	e0 0f       	add	r30, r16
    2714:	f1 1f       	adc	r31, r17
    2716:	60 e1       	ldi	r22, 0x10	; 16
    2718:	77 e2       	ldi	r23, 0x27	; 39
    271a:	86 9f       	mul	r24, r22
    271c:	90 01       	movw	r18, r0
    271e:	87 9f       	mul	r24, r23
    2720:	30 0d       	add	r19, r0
    2722:	96 9f       	mul	r25, r22
    2724:	30 0d       	add	r19, r0
    2726:	11 24       	eor	r1, r1
    2728:	ca 01       	movw	r24, r20
    272a:	82 1b       	sub	r24, r18
    272c:	93 0b       	sbc	r25, r19
    272e:	9c 01       	movw	r18, r24
    2730:	36 95       	lsr	r19
    2732:	27 95       	ror	r18
    2734:	36 95       	lsr	r19
    2736:	27 95       	ror	r18
    2738:	36 95       	lsr	r19
    273a:	27 95       	ror	r18
    273c:	a5 ec       	ldi	r26, 0xC5	; 197
    273e:	b0 e2       	ldi	r27, 0x20	; 32
    2740:	d5 d4       	rcall	.+2474   	; 0x30ec <__umulhisi3>
    2742:	92 95       	swap	r25
    2744:	82 95       	swap	r24
    2746:	8f 70       	andi	r24, 0x0F	; 15
    2748:	89 27       	eor	r24, r25
    274a:	9f 70       	andi	r25, 0x0F	; 15
    274c:	89 27       	eor	r24, r25
    274e:	80 5d       	subi	r24, 0xD0	; 208
    2750:	80 87       	std	Z+8, r24	; 0x08
		transmitString[numberDigit+8] = ((aCARRIAGE->data % 1000) / 100) + '0';
    2752:	fe 01       	movw	r30, r28
    2754:	e0 0f       	add	r30, r16
    2756:	f1 1f       	adc	r31, r17
    2758:	9a 01       	movw	r18, r20
    275a:	36 95       	lsr	r19
    275c:	27 95       	ror	r18
    275e:	36 95       	lsr	r19
    2760:	27 95       	ror	r18
    2762:	36 95       	lsr	r19
    2764:	27 95       	ror	r18
    2766:	c2 d4       	rcall	.+2436   	; 0x30ec <__umulhisi3>
    2768:	92 95       	swap	r25
    276a:	82 95       	swap	r24
    276c:	8f 70       	andi	r24, 0x0F	; 15
    276e:	89 27       	eor	r24, r25
    2770:	9f 70       	andi	r25, 0x0F	; 15
    2772:	89 27       	eor	r24, r25
    2774:	68 ee       	ldi	r22, 0xE8	; 232
    2776:	73 e0       	ldi	r23, 0x03	; 3
    2778:	86 9f       	mul	r24, r22
    277a:	90 01       	movw	r18, r0
    277c:	87 9f       	mul	r24, r23
    277e:	30 0d       	add	r19, r0
    2780:	96 9f       	mul	r25, r22
    2782:	30 0d       	add	r19, r0
    2784:	11 24       	eor	r1, r1
    2786:	ca 01       	movw	r24, r20
    2788:	82 1b       	sub	r24, r18
    278a:	93 0b       	sbc	r25, r19
    278c:	9c 01       	movw	r18, r24
    278e:	36 95       	lsr	r19
    2790:	27 95       	ror	r18
    2792:	36 95       	lsr	r19
    2794:	27 95       	ror	r18
    2796:	ab e7       	ldi	r26, 0x7B	; 123
    2798:	b4 e1       	ldi	r27, 0x14	; 20
    279a:	a8 d4       	rcall	.+2384   	; 0x30ec <__umulhisi3>
    279c:	96 95       	lsr	r25
    279e:	87 95       	ror	r24
    27a0:	80 5d       	subi	r24, 0xD0	; 208
    27a2:	81 87       	std	Z+9, r24	; 0x09
		transmitString[numberDigit+9] = ((aCARRIAGE->data % 100) / 10) + '0';
    27a4:	fe 01       	movw	r30, r28
    27a6:	e0 0f       	add	r30, r16
    27a8:	f1 1f       	adc	r31, r17
    27aa:	9a 01       	movw	r18, r20
    27ac:	36 95       	lsr	r19
    27ae:	27 95       	ror	r18
    27b0:	36 95       	lsr	r19
    27b2:	27 95       	ror	r18
    27b4:	9b d4       	rcall	.+2358   	; 0x30ec <__umulhisi3>
    27b6:	96 95       	lsr	r25
    27b8:	87 95       	ror	r24
    27ba:	64 e6       	ldi	r22, 0x64	; 100
    27bc:	68 9f       	mul	r22, r24
    27be:	90 01       	movw	r18, r0
    27c0:	69 9f       	mul	r22, r25
    27c2:	30 0d       	add	r19, r0
    27c4:	11 24       	eor	r1, r1
    27c6:	ca 01       	movw	r24, r20
    27c8:	82 1b       	sub	r24, r18
    27ca:	93 0b       	sbc	r25, r19
    27cc:	9c 01       	movw	r18, r24
    27ce:	ad ec       	ldi	r26, 0xCD	; 205
    27d0:	bc ec       	ldi	r27, 0xCC	; 204
    27d2:	8c d4       	rcall	.+2328   	; 0x30ec <__umulhisi3>
    27d4:	96 95       	lsr	r25
    27d6:	87 95       	ror	r24
    27d8:	96 95       	lsr	r25
    27da:	87 95       	ror	r24
    27dc:	96 95       	lsr	r25
    27de:	87 95       	ror	r24
    27e0:	80 5d       	subi	r24, 0xD0	; 208
    27e2:	82 87       	std	Z+10, r24	; 0x0a
		transmitString[numberDigit+10] = (aCARRIAGE->data % 10) + '0';
    27e4:	fe 01       	movw	r30, r28
    27e6:	e0 0f       	add	r30, r16
    27e8:	f1 1f       	adc	r31, r17
    27ea:	9a 01       	movw	r18, r20
    27ec:	7f d4       	rcall	.+2302   	; 0x30ec <__umulhisi3>
    27ee:	96 95       	lsr	r25
    27f0:	87 95       	ror	r24
    27f2:	96 95       	lsr	r25
    27f4:	87 95       	ror	r24
    27f6:	96 95       	lsr	r25
    27f8:	87 95       	ror	r24
    27fa:	9c 01       	movw	r18, r24
    27fc:	22 0f       	add	r18, r18
    27fe:	33 1f       	adc	r19, r19
    2800:	88 0f       	add	r24, r24
    2802:	99 1f       	adc	r25, r25
    2804:	88 0f       	add	r24, r24
    2806:	99 1f       	adc	r25, r25
    2808:	88 0f       	add	r24, r24
    280a:	99 1f       	adc	r25, r25
    280c:	82 0f       	add	r24, r18
    280e:	93 1f       	adc	r25, r19
    2810:	48 1b       	sub	r20, r24
    2812:	59 0b       	sbc	r21, r25
    2814:	40 5d       	subi	r20, 0xD0	; 208
    2816:	43 87       	std	Z+11, r20	; 0x0b
		transmitString[numberDigit+8] = ((aCARRIAGE->data % 100) / 10) + '0';
		transmitString[numberDigit+9] = (aCARRIAGE->data % 10) + '0';
		
	} else															// five digits
	{
		dataDigit = 5;
    2818:	85 e0       	ldi	r24, 0x05	; 5
		transmitString[numberDigit+9] = ((aCARRIAGE->data % 100) / 10) + '0';
		transmitString[numberDigit+10] = (aCARRIAGE->data % 10) + '0';
				
	}
	
	transmitString[numberDigit+dataDigit+6] = '#';
    281a:	08 0f       	add	r16, r24
    281c:	11 1d       	adc	r17, r1
    281e:	fe 01       	movw	r30, r28
    2820:	e0 0f       	add	r30, r16
    2822:	f1 1f       	adc	r31, r17
    2824:	93 e2       	ldi	r25, 0x23	; 35
    2826:	97 83       	std	Z+7, r25	; 0x07
	transmitString[numberDigit+dataDigit+7] = 13;					// CR
    2828:	fe 01       	movw	r30, r28
    282a:	e0 0f       	add	r30, r16
    282c:	f1 1f       	adc	r31, r17
    282e:	9d e0       	ldi	r25, 0x0D	; 13
    2830:	90 87       	std	Z+8, r25	; 0x08
	
	stringLength = numberDigit + dataDigit + 8;
    2832:	9f 2d       	mov	r25, r15
    2834:	98 5f       	subi	r25, 0xF8	; 248
    2836:	f9 2e       	mov	r15, r25
    2838:	f8 0e       	add	r15, r24
	
	while (stringLength>serialport_checkSpace());					// wait until transmit buffer is free enough
    283a:	bc db       	rcall	.-2184   	; 0x1fb4 <serialport_checkSpace>
    283c:	8f 15       	cp	r24, r15
    283e:	e8 f3       	brcs	.-6      	; 0x283a <serialport_writeCarriage+0x420>
	
	serialport_write(transmitString, stringLength);					// send the string		
    2840:	6f 2d       	mov	r22, r15
    2842:	ce 01       	movw	r24, r28
    2844:	01 96       	adiw	r24, 0x01	; 1
    2846:	64 db       	rcall	.-2360   	; 0x1f10 <serialport_write>
}
    2848:	60 96       	adiw	r28, 0x10	; 16
    284a:	0f b6       	in	r0, 0x3f	; 63
    284c:	f8 94       	cli
    284e:	de bf       	out	0x3e, r29	; 62
    2850:	0f be       	out	0x3f, r0	; 63
    2852:	cd bf       	out	0x3d, r28	; 61
    2854:	df 91       	pop	r29
    2856:	cf 91       	pop	r28
    2858:	1f 91       	pop	r17
    285a:	0f 91       	pop	r16
    285c:	ff 90       	pop	r15
    285e:	08 95       	ret

00002860 <ow_bit_io>:

// check the one wire pin returns 0 if low
uint8_t ow_input_pin_state()
{
	return OW_GET_IN();
}
    2860:	9f b7       	in	r25, 0x3f	; 63
    2862:	f8 94       	cli
    2864:	6b 9a       	sbi	0x0d, 3	; 13
    2866:	2a e0       	ldi	r18, 0x0A	; 10
    2868:	2a 95       	dec	r18
    286a:	f1 f7       	brne	.-4      	; 0x2868 <ow_bit_io+0x8>
    286c:	00 c0       	rjmp	.+0      	; 0x286e <ow_bit_io+0xe>
    286e:	81 11       	cpse	r24, r1
    2870:	6b 98       	cbi	0x0d, 3	; 13
    2872:	25 e4       	ldi	r18, 0x45	; 69
    2874:	2a 95       	dec	r18
    2876:	f1 f7       	brne	.-4      	; 0x2874 <ow_bit_io+0x14>
    2878:	00 00       	nop
    287a:	63 9b       	sbis	0x0c, 3	; 12
    287c:	80 e0       	ldi	r24, 0x00	; 0
    287e:	25 ee       	ldi	r18, 0xE5	; 229
    2880:	2a 95       	dec	r18
    2882:	f1 f7       	brne	.-4      	; 0x2880 <ow_bit_io+0x20>
    2884:	00 00       	nop
    2886:	6b 98       	cbi	0x0d, 3	; 13
    2888:	9f bf       	out	0x3f, r25	; 63
    288a:	95 e3       	ldi	r25, 0x35	; 53
    288c:	9a 95       	dec	r25
    288e:	f1 f7       	brne	.-4      	; 0x288c <ow_bit_io+0x2c>
    2890:	00 00       	nop
    2892:	08 95       	ret

00002894 <ow_reset>:
// make a reset impulse on the one wire pin
uint8_t ow_reset(void)
{
	uint8_t err;
	
	OW_OUT_LOW();
    2894:	73 98       	cbi	0x0e, 3	; 14
	OW_DIR_OUT();            // pull OW-Pin low for 480us
    2896:	6b 9a       	sbi	0x0d, 3	; 13
	#else
		//round up by default
		__ticks_dc = (uint32_t)(ceil(fabs(__tmp)));
	#endif

	__builtin_avr_delay_cycles(__ticks_dc);
    2898:	87 e8       	ldi	r24, 0x87	; 135
    289a:	97 e0       	ldi	r25, 0x07	; 7
    289c:	01 97       	sbiw	r24, 0x01	; 1
    289e:	f1 f7       	brne	.-4      	; 0x289c <ow_reset+0x8>
    28a0:	00 c0       	rjmp	.+0      	; 0x28a2 <ow_reset+0xe>
    28a2:	00 00       	nop
	_delay_us(482);

	ATOMIC_BLOCK(ATOMIC_RESTORESTATE) {
    28a4:	9f b7       	in	r25, 0x3f	; 63
    return 1;
}

static __inline__ uint8_t __iCliRetVal(void)
{
    cli();
    28a6:	f8 94       	cli
		// set Pin as input - wait for clients to pull low
		OW_DIR_IN(); // input
    28a8:	6b 98       	cbi	0x0d, 3	; 13
    28aa:	ef ef       	ldi	r30, 0xFF	; 255
    28ac:	f0 e0       	ldi	r31, 0x00	; 0
    28ae:	31 97       	sbiw	r30, 0x01	; 1
    28b0:	f1 f7       	brne	.-4      	; 0x28ae <ow_reset+0x1a>
    28b2:	00 c0       	rjmp	.+0      	; 0x28b4 <ow_reset+0x20>
    28b4:	00 00       	nop
				
		_delay_us(64);       // was 66
		err = OW_GET_IN();   // no presence detect if err!=0: nobody pulled to low, still high
    28b6:	8c b1       	in	r24, 0x0c	; 12
    (void)__s;
}

static __inline__ void __iRestore(const  uint8_t *__s)
{
    SREG = *__s;
    28b8:	9f bf       	out	0x3f, r25	; 63
    28ba:	e7 e8       	ldi	r30, 0x87	; 135
    28bc:	f6 e0       	ldi	r31, 0x06	; 6
    28be:	31 97       	sbiw	r30, 0x01	; 1
    28c0:	f1 f7       	brne	.-4      	; 0x28be <ow_reset+0x2a>
    28c2:	00 c0       	rjmp	.+0      	; 0x28c4 <ow_reset+0x30>
    28c4:	00 00       	nop
	}
	
	// after a delay the clients should release the line
	// and input-pin gets back to high by pull-up-resistor
	_delay_us(482 - 64);       // was 480-66
	if( OW_GET_IN() == 0 ) {
    28c6:	63 9b       	sbis	0x0c, 3	; 12
    28c8:	02 c0       	rjmp	.+4      	; 0x28ce <ow_reset+0x3a>
	ATOMIC_BLOCK(ATOMIC_RESTORESTATE) {
		// set Pin as input - wait for clients to pull low
		OW_DIR_IN(); // input
				
		_delay_us(64);       // was 66
		err = OW_GET_IN();   // no presence detect if err!=0: nobody pulled to low, still high
    28ca:	88 70       	andi	r24, 0x08	; 8
    28cc:	08 95       	ret
	
	// after a delay the clients should release the line
	// and input-pin gets back to high by pull-up-resistor
	_delay_us(482 - 64);       // was 480-66
	if( OW_GET_IN() == 0 ) {
		err = 1;             // short circuit, expected high but got low
    28ce:	81 e0       	ldi	r24, 0x01	; 1
	}	
	return err;
}
    28d0:	08 95       	ret

000028d2 <ow_byte_wr>:
	return b;
}

// write one byte
uint8_t ow_byte_wr( uint8_t b )
{
    28d2:	cf 93       	push	r28
    28d4:	df 93       	push	r29
    28d6:	c8 2f       	mov	r28, r24
    28d8:	d8 e0       	ldi	r29, 0x08	; 8
	uint8_t i = 8, j;
	
	do {
		j = ow_bit_io( b & 1 );
    28da:	8c 2f       	mov	r24, r28
    28dc:	81 70       	andi	r24, 0x01	; 1
    28de:	c0 df       	rcall	.-128    	; 0x2860 <ow_bit_io>
		b >>= 1;
    28e0:	c6 95       	lsr	r28
		if( j ) {
    28e2:	81 11       	cpse	r24, r1
			b |= 0x80;
    28e4:	c0 68       	ori	r28, 0x80	; 128
    28e6:	d1 50       	subi	r29, 0x01	; 1
		}
	} while( --i );
    28e8:	c1 f7       	brne	.-16     	; 0x28da <ow_byte_wr+0x8>
	
	return b;
}
    28ea:	8c 2f       	mov	r24, r28
    28ec:	df 91       	pop	r29
    28ee:	cf 91       	pop	r28
    28f0:	08 95       	ret

000028f2 <ow_command>:
	return next_diff;                   // to continue search
}

// send command to a special client or to all clients (id = NULL)
static void ow_command( uint8_t command, uint8_t *id)
{
    28f2:	ff 92       	push	r15
    28f4:	0f 93       	push	r16
    28f6:	1f 93       	push	r17
    28f8:	cf 93       	push	r28
    28fa:	df 93       	push	r29
    28fc:	f8 2e       	mov	r15, r24
    28fe:	eb 01       	movw	r28, r22
	uint8_t i;

	ow_reset();
    2900:	c9 df       	rcall	.-110    	; 0x2894 <ow_reset>

	if( id ) {
    2902:	20 97       	sbiw	r28, 0x00	; 0
    2904:	59 f0       	breq	.+22     	; 0x291c <ow_command+0x2a>
		ow_byte_wr( OW_MATCH_ROM );     // to a single device
    2906:	85 e5       	ldi	r24, 0x55	; 85
    2908:	e4 df       	rcall	.-56     	; 0x28d2 <ow_byte_wr>
	
	return next_diff;                   // to continue search
}

// send command to a special client or to all clients (id = NULL)
static void ow_command( uint8_t command, uint8_t *id)
    290a:	8e 01       	movw	r16, r28
    290c:	08 5f       	subi	r16, 0xF8	; 248
    290e:	1f 4f       	sbci	r17, 0xFF	; 255

	if( id ) {
		ow_byte_wr( OW_MATCH_ROM );     // to a single device
		i = OW_ROMCODE_SIZE;
		do {
			ow_byte_wr( *id );
    2910:	89 91       	ld	r24, Y+
    2912:	df df       	rcall	.-66     	; 0x28d2 <ow_byte_wr>
			id++;
		} while( --i );
    2914:	c0 17       	cp	r28, r16
    2916:	d1 07       	cpc	r29, r17
    2918:	d9 f7       	brne	.-10     	; 0x2910 <ow_command+0x1e>
    291a:	02 c0       	rjmp	.+4      	; 0x2920 <ow_command+0x2e>
	}
	else {
		ow_byte_wr( OW_SKIP_ROM );      // to all devices
    291c:	8c ec       	ldi	r24, 0xCC	; 204
    291e:	d9 df       	rcall	.-78     	; 0x28d2 <ow_byte_wr>
	}
	ow_byte_wr( command );
    2920:	8f 2d       	mov	r24, r15
    2922:	d7 df       	rcall	.-82     	; 0x28d2 <ow_byte_wr>
}
    2924:	df 91       	pop	r29
    2926:	cf 91       	pop	r28
    2928:	1f 91       	pop	r17
    292a:	0f 91       	pop	r16
    292c:	ff 90       	pop	r15
    292e:	08 95       	ret

00002930 <ow_byte_rd>:
// read one byte
uint8_t ow_byte_rd( void )
{
	// read by sending only "1"s, so bus gets released
	// after the init low-pulse in every slot
	return ow_byte_wr( 0xFF );
    2930:	8f ef       	ldi	r24, 0xFF	; 255
}
    2932:	cf cf       	rjmp	.-98     	; 0x28d2 <ow_byte_wr>

00002934 <ow_rom_search>:

// search for (next) device
uint8_t ow_rom_search( uint8_t diff, uint8_t *id )
{
    2934:	df 92       	push	r13
    2936:	ef 92       	push	r14
    2938:	ff 92       	push	r15
    293a:	0f 93       	push	r16
    293c:	1f 93       	push	r17
    293e:	cf 93       	push	r28
    2940:	df 93       	push	r29
    2942:	d8 2e       	mov	r13, r24
    2944:	eb 01       	movw	r28, r22
	uint8_t i, j, next_diff;
	uint8_t b;
	
	if( ow_reset() ) {
    2946:	a6 df       	rcall	.-180    	; 0x2894 <ow_reset>
    2948:	81 11       	cpse	r24, r1
    294a:	24 c0       	rjmp	.+72     	; 0x2994 <ow_rom_search+0x60>
		return OW_PRESENCE_ERR;         // error, no device found <--- early exit!
	}
	
	ow_byte_wr( OW_SEARCH_ROM );        // ROM search command
    294c:	80 ef       	ldi	r24, 0xF0	; 240
    294e:	c1 df       	rcall	.-126    	; 0x28d2 <ow_byte_wr>
	next_diff = OW_LAST_DEVICE;         // unchanged on last device
    2950:	e1 2c       	mov	r14, r1
	
	i = OW_ROMCODE_SIZE * 8;            // 8 bytes
    2952:	10 e4       	ldi	r17, 0x40	; 64
	// after the init low-pulse in every slot
	return ow_byte_wr( 0xFF );
}

// search for (next) device
uint8_t ow_rom_search( uint8_t diff, uint8_t *id )
    2954:	0f 2e       	mov	r0, r31
    2956:	f8 ef       	ldi	r31, 0xF8	; 248
    2958:	ff 2e       	mov	r15, r31
    295a:	f0 2d       	mov	r31, r0
    295c:	f1 0e       	add	r15, r17
	i = OW_ROMCODE_SIZE * 8;            // 8 bytes
	
	do {
		j = 8;                          // 8 bits
		do {
			b = ow_bit_io( 1 );         // read bit
    295e:	81 e0       	ldi	r24, 0x01	; 1
    2960:	7f df       	rcall	.-258    	; 0x2860 <ow_bit_io>
    2962:	08 2f       	mov	r16, r24
			if( ow_bit_io( 1 ) ) {      // read complement bit
    2964:	81 e0       	ldi	r24, 0x01	; 1
    2966:	7c df       	rcall	.-264    	; 0x2860 <ow_bit_io>
    2968:	88 23       	and	r24, r24
    296a:	19 f0       	breq	.+6      	; 0x2972 <ow_rom_search+0x3e>
				if( b ) {               // 0b11
    296c:	00 23       	and	r16, r16
    296e:	d1 f0       	breq	.+52     	; 0x29a4 <ow_rom_search+0x70>
    2970:	14 c0       	rjmp	.+40     	; 0x299a <ow_rom_search+0x66>
					return OW_DATA_ERR; // data error <--- early exit!
				}
			}
			else {
				if( !b ) {              // 0b00 = 2 devices
    2972:	01 11       	cpse	r16, r1
    2974:	22 c0       	rjmp	.+68     	; 0x29ba <ow_rom_search+0x86>
					if( diff > i || ((*id & 1) && diff != i) ) {
    2976:	1d 15       	cp	r17, r13
    2978:	d8 f0       	brcs	.+54     	; 0x29b0 <ow_rom_search+0x7c>
    297a:	88 81       	ld	r24, Y
    297c:	80 ff       	sbrs	r24, 0
    297e:	12 c0       	rjmp	.+36     	; 0x29a4 <ow_rom_search+0x70>
    2980:	d1 12       	cpse	r13, r17
    2982:	19 c0       	rjmp	.+50     	; 0x29b6 <ow_rom_search+0x82>
    2984:	0f c0       	rjmp	.+30     	; 0x29a4 <ow_rom_search+0x70>
			*id >>= 1;
			if( b ) {
				*id |= 0x80;            // store bit
			}
			
			i--;
    2986:	11 50       	subi	r17, 0x01	; 1
			
		} while( --j );
    2988:	1f 11       	cpse	r17, r15
    298a:	e9 cf       	rjmp	.-46     	; 0x295e <ow_rom_search+0x2a>
		
		id++;                           // next byte
    298c:	21 96       	adiw	r28, 0x01	; 1
		
	} while( i );
    298e:	11 11       	cpse	r17, r1
    2990:	e1 cf       	rjmp	.-62     	; 0x2954 <ow_rom_search+0x20>
    2992:	1a c0       	rjmp	.+52     	; 0x29c8 <ow_rom_search+0x94>
{
	uint8_t i, j, next_diff;
	uint8_t b;
	
	if( ow_reset() ) {
		return OW_PRESENCE_ERR;         // error, no device found <--- early exit!
    2994:	ee 24       	eor	r14, r14
    2996:	ea 94       	dec	r14
    2998:	17 c0       	rjmp	.+46     	; 0x29c8 <ow_rom_search+0x94>
		j = 8;                          // 8 bits
		do {
			b = ow_bit_io( 1 );         // read bit
			if( ow_bit_io( 1 ) ) {      // read complement bit
				if( b ) {               // 0b11
					return OW_DATA_ERR; // data error <--- early exit!
    299a:	0f 2e       	mov	r0, r31
    299c:	fe ef       	ldi	r31, 0xFE	; 254
    299e:	ef 2e       	mov	r14, r31
    29a0:	f0 2d       	mov	r31, r0
    29a2:	12 c0       	rjmp	.+36     	; 0x29c8 <ow_rom_search+0x94>
						b = 1;          // now 1
						next_diff = i;  // next pass 0
					}
				}
			}
			ow_bit_io( b );             // write bit
    29a4:	80 2f       	mov	r24, r16
    29a6:	5c df       	rcall	.-328    	; 0x2860 <ow_bit_io>
			*id >>= 1;
    29a8:	98 81       	ld	r25, Y
    29aa:	96 95       	lsr	r25
    29ac:	98 83       	st	Y, r25
    29ae:	eb cf       	rjmp	.-42     	; 0x2986 <ow_rom_search+0x52>
			}
			else {
				if( !b ) {              // 0b00 = 2 devices
					if( diff > i || ((*id & 1) && diff != i) ) {
						b = 1;          // now 1
						next_diff = i;  // next pass 0
    29b0:	e1 2e       	mov	r14, r17
				}
			}
			else {
				if( !b ) {              // 0b00 = 2 devices
					if( diff > i || ((*id & 1) && diff != i) ) {
						b = 1;          // now 1
    29b2:	01 e0       	ldi	r16, 0x01	; 1
    29b4:	02 c0       	rjmp	.+4      	; 0x29ba <ow_rom_search+0x86>
						next_diff = i;  // next pass 0
    29b6:	e1 2e       	mov	r14, r17
				}
			}
			else {
				if( !b ) {              // 0b00 = 2 devices
					if( diff > i || ((*id & 1) && diff != i) ) {
						b = 1;          // now 1
    29b8:	01 e0       	ldi	r16, 0x01	; 1
						next_diff = i;  // next pass 0
					}
				}
			}
			ow_bit_io( b );             // write bit
    29ba:	80 2f       	mov	r24, r16
    29bc:	51 df       	rcall	.-350    	; 0x2860 <ow_bit_io>
			*id >>= 1;
    29be:	98 81       	ld	r25, Y
    29c0:	96 95       	lsr	r25
			if( b ) {
				*id |= 0x80;            // store bit
    29c2:	90 68       	ori	r25, 0x80	; 128
    29c4:	98 83       	st	Y, r25
    29c6:	df cf       	rjmp	.-66     	; 0x2986 <ow_rom_search+0x52>
		id++;                           // next byte
		
	} while( i );
	
	return next_diff;                   // to continue search
}
    29c8:	8e 2d       	mov	r24, r14
    29ca:	df 91       	pop	r29
    29cc:	cf 91       	pop	r28
    29ce:	1f 91       	pop	r17
    29d0:	0f 91       	pop	r16
    29d2:	ff 90       	pop	r15
    29d4:	ef 90       	pop	r14
    29d6:	df 90       	pop	r13
    29d8:	08 95       	ret

000029da <tempSensor_init>:
}



void tempSensor_init(void)
{
    29da:	cf 93       	push	r28
    29dc:	df 93       	push	r29
    29de:	1f 92       	push	r1
    29e0:	cd b7       	in	r28, 0x3d	; 61
    29e2:	de b7       	in	r29, 0x3e	; 62
	DIDR0 = 0xFF;						// disable digital input buffers
    29e4:	8f ef       	ldi	r24, 0xFF	; 255
    29e6:	80 93 7e 00 	sts	0x007E, r24
	ADMUX = 0b11000000;					// 2.56 V reference, right adjust 
    29ea:	90 ec       	ldi	r25, 0xC0	; 192
    29ec:	90 93 7c 00 	sts	0x007C, r25
	ADCSRB = 0;							// no gain
    29f0:	10 92 7b 00 	sts	0x007B, r1
	ADCSRA = 0b11000111;				// enable ADC, start first conversation to calibrate, prescaler = 128 => 125 kHz
    29f4:	97 ec       	ldi	r25, 0xC7	; 199
    29f6:	90 93 7a 00 	sts	0x007A, r25
	
	volatile uint8_t diff;
	
	// find sensors and store adresses
	
	diff = OW_SEARCH_FIRST;
    29fa:	89 83       	std	Y+1, r24	; 0x01
	while ( diff != OW_LAST_DEVICE && oneWireAmount < MAXSENSORS ) {
    29fc:	89 81       	ldd	r24, Y+1	; 0x01
    29fe:	88 23       	and	r24, r24
    2a00:	01 f1       	breq	.+64     	; 0x2a42 <tempSensor_init+0x68>
    2a02:	60 91 58 03 	lds	r22, 0x0358
    2a06:	68 30       	cpi	r22, 0x08	; 8
    2a08:	e0 f4       	brcc	.+56     	; 0x2a42 <tempSensor_init+0x68>
		diff = ow_rom_search(diff,&oneWireAddr[oneWireAmount][0]);
    2a0a:	89 81       	ldd	r24, Y+1	; 0x01
    2a0c:	70 e0       	ldi	r23, 0x00	; 0
    2a0e:	66 0f       	add	r22, r22
    2a10:	77 1f       	adc	r23, r23
    2a12:	66 0f       	add	r22, r22
    2a14:	77 1f       	adc	r23, r23
    2a16:	66 0f       	add	r22, r22
    2a18:	77 1f       	adc	r23, r23
    2a1a:	6f 58       	subi	r22, 0x8F	; 143
    2a1c:	7c 4f       	sbci	r23, 0xFC	; 252
    2a1e:	8a df       	rcall	.-236    	; 0x2934 <ow_rom_search>
    2a20:	89 83       	std	Y+1, r24	; 0x01
		if (diff == OW_PRESENCE_ERR || diff == OW_DATA_ERR)
    2a22:	89 81       	ldd	r24, Y+1	; 0x01
    2a24:	8f 3f       	cpi	r24, 0xFF	; 255
    2a26:	69 f0       	breq	.+26     	; 0x2a42 <tempSensor_init+0x68>
    2a28:	89 81       	ldd	r24, Y+1	; 0x01
    2a2a:	8e 3f       	cpi	r24, 0xFE	; 254
    2a2c:	51 f0       	breq	.+20     	; 0x2a42 <tempSensor_init+0x68>
		{
			break;
		}
		oneWireAmount++;
    2a2e:	60 91 58 03 	lds	r22, 0x0358
    2a32:	6f 5f       	subi	r22, 0xFF	; 255
    2a34:	60 93 58 03 	sts	0x0358, r22
	volatile uint8_t diff;
	
	// find sensors and store adresses
	
	diff = OW_SEARCH_FIRST;
	while ( diff != OW_LAST_DEVICE && oneWireAmount < MAXSENSORS ) {
    2a38:	89 81       	ldd	r24, Y+1	; 0x01
    2a3a:	88 23       	and	r24, r24
    2a3c:	11 f0       	breq	.+4      	; 0x2a42 <tempSensor_init+0x68>
    2a3e:	68 30       	cpi	r22, 0x08	; 8
    2a40:	20 f3       	brcs	.-56     	; 0x2a0a <tempSensor_init+0x30>
		{
			break;
		}
		oneWireAmount++;
	}
	if (oneWireAmount > 0)
    2a42:	80 91 58 03 	lds	r24, 0x0358
    2a46:	88 23       	and	r24, r24
    2a48:	21 f0       	breq	.+8      	; 0x2a52 <tempSensor_init+0x78>
	{
		ow_command(DS18X20_CONVERT_T, NULL);	// start conversation of all connected 1-wire sensors
    2a4a:	60 e0       	ldi	r22, 0x00	; 0
    2a4c:	70 e0       	ldi	r23, 0x00	; 0
    2a4e:	84 e4       	ldi	r24, 0x44	; 68
    2a50:	50 df       	rcall	.-352    	; 0x28f2 <ow_command>
	}
}
    2a52:	0f 90       	pop	r0
    2a54:	df 91       	pop	r29
    2a56:	cf 91       	pop	r28
    2a58:	08 95       	ret

00002a5a <tempSensor_getTemp>:


uint8_t tempSensor_getTemp(uint8_t channel)
{		
    2a5a:	ff 92       	push	r15
    2a5c:	0f 93       	push	r16
    2a5e:	1f 93       	push	r17
    2a60:	cf 93       	push	r28
    2a62:	df 93       	push	r29
    2a64:	08 2f       	mov	r16, r24
	uint8_t i;
		
	if (oneWireAmount > 0)		// interface the 1-wire sensors if connected
    2a66:	80 91 58 03 	lds	r24, 0x0358
    2a6a:	88 23       	and	r24, r24
    2a6c:	69 f1       	breq	.+90     	; 0x2ac8 <tempSensor_getTemp+0x6e>
	{
		if (ow_bit_io(1))		// conversation finished
    2a6e:	81 e0       	ldi	r24, 0x01	; 1
    2a70:	f7 de       	rcall	.-530    	; 0x2860 <ow_bit_io>
    2a72:	88 23       	and	r24, r24
    2a74:	49 f1       	breq	.+82     	; 0x2ac8 <tempSensor_getTemp+0x6e>
		{
			for (i=0;i<oneWireAmount;i++)			// for all connected 1-wire sensors
    2a76:	80 91 58 03 	lds	r24, 0x0358
    2a7a:	88 23       	and	r24, r24
    2a7c:	09 f1       	breq	.+66     	; 0x2ac0 <tempSensor_getTemp+0x66>
    2a7e:	10 e0       	ldi	r17, 0x00	; 0
			
				// ow_reset();							// abort conversation (already in ow_command included)
			
				if (oneWireTemperatures[i] > 199)					// check for maximum of 99.5C
				{
					oneWireTemperatures[i] = 199;
    2a80:	0f 2e       	mov	r0, r31
    2a82:	f7 ec       	ldi	r31, 0xC7	; 199
    2a84:	ff 2e       	mov	r15, r31
    2a86:	f0 2d       	mov	r31, r0
	{
		if (ow_bit_io(1))		// conversation finished
		{
			for (i=0;i<oneWireAmount;i++)			// for all connected 1-wire sensors
			{
				ow_command(DS18X20_READ, &oneWireAddr[i][0]);		// start reading scratchpad
    2a88:	c1 2f       	mov	r28, r17
    2a8a:	d0 e0       	ldi	r29, 0x00	; 0
    2a8c:	be 01       	movw	r22, r28
    2a8e:	66 0f       	add	r22, r22
    2a90:	77 1f       	adc	r23, r23
    2a92:	66 0f       	add	r22, r22
    2a94:	77 1f       	adc	r23, r23
    2a96:	66 0f       	add	r22, r22
    2a98:	77 1f       	adc	r23, r23
    2a9a:	6f 58       	subi	r22, 0x8F	; 143
    2a9c:	7c 4f       	sbci	r23, 0xFC	; 252
    2a9e:	8e eb       	ldi	r24, 0xBE	; 190
    2aa0:	28 df       	rcall	.-432    	; 0x28f2 <ow_command>
			
				oneWireTemperatures[i] = ow_byte_rd();	// read only the lsb of the temperature
    2aa2:	46 df       	rcall	.-372    	; 0x2930 <ow_byte_rd>
			
				// ow_reset();							// abort conversation (already in ow_command included)
			
				if (oneWireTemperatures[i] > 199)					// check for maximum of 99.5C
    2aa4:	88 3c       	cpi	r24, 0xC8	; 200
    2aa6:	20 f4       	brcc	.+8      	; 0x2ab0 <tempSensor_getTemp+0x56>
		{
			for (i=0;i<oneWireAmount;i++)			// for all connected 1-wire sensors
			{
				ow_command(DS18X20_READ, &oneWireAddr[i][0]);		// start reading scratchpad
			
				oneWireTemperatures[i] = ow_byte_rd();	// read only the lsb of the temperature
    2aa8:	c0 50       	subi	r28, 0x00	; 0
    2aaa:	de 4f       	sbci	r29, 0xFE	; 254
    2aac:	88 83       	st	Y, r24
    2aae:	03 c0       	rjmp	.+6      	; 0x2ab6 <tempSensor_getTemp+0x5c>
			
				// ow_reset();							// abort conversation (already in ow_command included)
			
				if (oneWireTemperatures[i] > 199)					// check for maximum of 99.5C
				{
					oneWireTemperatures[i] = 199;
    2ab0:	c0 50       	subi	r28, 0x00	; 0
    2ab2:	de 4f       	sbci	r29, 0xFE	; 254
    2ab4:	f8 82       	st	Y, r15
		
	if (oneWireAmount > 0)		// interface the 1-wire sensors if connected
	{
		if (ow_bit_io(1))		// conversation finished
		{
			for (i=0;i<oneWireAmount;i++)			// for all connected 1-wire sensors
    2ab6:	1f 5f       	subi	r17, 0xFF	; 255
    2ab8:	80 91 58 03 	lds	r24, 0x0358
    2abc:	18 17       	cp	r17, r24
    2abe:	20 f3       	brcs	.-56     	; 0x2a88 <tempSensor_getTemp+0x2e>
				if (oneWireTemperatures[i] > 199)					// check for maximum of 99.5C
				{
					oneWireTemperatures[i] = 199;
				}
			}
			ow_command(DS18X20_CONVERT_T, NULL);	// start conversation of all connected 1-wire sensors		
    2ac0:	60 e0       	ldi	r22, 0x00	; 0
    2ac2:	70 e0       	ldi	r23, 0x00	; 0
    2ac4:	84 e4       	ldi	r24, 0x44	; 68
    2ac6:	15 df       	rcall	.-470    	; 0x28f2 <ow_command>
		}
	}		
	
	
	if (channel < 8)	// analog sensor
    2ac8:	08 30       	cpi	r16, 0x08	; 8
    2aca:	e0 f4       	brcc	.+56     	; 0x2b04 <tempSensor_getTemp+0xaa>
	{
		uint16_t value;
		
		ADMUX = (ADMUX & 0b11111000)|channel;	// select channel
    2acc:	ec e7       	ldi	r30, 0x7C	; 124
    2ace:	f0 e0       	ldi	r31, 0x00	; 0
    2ad0:	80 81       	ld	r24, Z
    2ad2:	88 7f       	andi	r24, 0xF8	; 248
    2ad4:	08 2b       	or	r16, r24
    2ad6:	00 83       	st	Z, r16
		
		ADCSRA |= 0b01000000;					// start conversaition
    2ad8:	ea e7       	ldi	r30, 0x7A	; 122
    2ada:	f0 e0       	ldi	r31, 0x00	; 0
    2adc:	80 81       	ld	r24, Z
    2ade:	80 64       	ori	r24, 0x40	; 64
    2ae0:	80 83       	st	Z, r24
		
		while(ADCSRA & 0b01000000);
    2ae2:	80 81       	ld	r24, Z
    2ae4:	86 fd       	sbrc	r24, 6
    2ae6:	fd cf       	rjmp	.-6      	; 0x2ae2 <tempSensor_getTemp+0x88>
				
		value = ADC;
    2ae8:	e0 91 78 00 	lds	r30, 0x0078
    2aec:	f0 91 79 00 	lds	r31, 0x0079
		
		if (value == 1023)
    2af0:	ef 3f       	cpi	r30, 0xFF	; 255
    2af2:	83 e0       	ldi	r24, 0x03	; 3
    2af4:	f8 07       	cpc	r31, r24
    2af6:	a9 f0       	breq	.+42     	; 0x2b22 <tempSensor_getTemp+0xc8>
		{
			return 220;
		}
		else
		{
			value = (value >> 1);
    2af8:	f6 95       	lsr	r31
    2afa:	e7 95       	ror	r30
			return pgm_read_byte(tempTable+value);
    2afc:	e6 57       	subi	r30, 0x76	; 118
    2afe:	fc 4f       	sbci	r31, 0xFC	; 252
    2b00:	84 91       	lpm	r24, Z
    2b02:	12 c0       	rjmp	.+36     	; 0x2b28 <tempSensor_getTemp+0xce>
		}
	}
	else				// 1-wire sensor
	{
		if (channel < (8+oneWireAmount))	// sensor is connected
    2b04:	80 2f       	mov	r24, r16
    2b06:	90 e0       	ldi	r25, 0x00	; 0
    2b08:	20 91 58 03 	lds	r18, 0x0358
    2b0c:	30 e0       	ldi	r19, 0x00	; 0
    2b0e:	28 5f       	subi	r18, 0xF8	; 248
    2b10:	3f 4f       	sbci	r19, 0xFF	; 255
    2b12:	82 17       	cp	r24, r18
    2b14:	93 07       	cpc	r25, r19
    2b16:	3c f4       	brge	.+14     	; 0x2b26 <tempSensor_getTemp+0xcc>
		{
			return oneWireTemperatures[channel-8];	// latest value out of memory			
    2b18:	fc 01       	movw	r30, r24
    2b1a:	e8 50       	subi	r30, 0x08	; 8
    2b1c:	fe 4f       	sbci	r31, 0xFE	; 254
    2b1e:	80 81       	ld	r24, Z
    2b20:	03 c0       	rjmp	.+6      	; 0x2b28 <tempSensor_getTemp+0xce>
				
		value = ADC;
		
		if (value == 1023)
		{
			return 220;
    2b22:	8c ed       	ldi	r24, 0xDC	; 220
    2b24:	01 c0       	rjmp	.+2      	; 0x2b28 <tempSensor_getTemp+0xce>
		{
			return oneWireTemperatures[channel-8];	// latest value out of memory			
		} 
		else
		{
			return 220;
    2b26:	8c ed       	ldi	r24, 0xDC	; 220
		}		
	}	
}
    2b28:	df 91       	pop	r29
    2b2a:	cf 91       	pop	r28
    2b2c:	1f 91       	pop	r17
    2b2e:	0f 91       	pop	r16
    2b30:	ff 90       	pop	r15
    2b32:	08 95       	ret

00002b34 <tempSensor_getOneWireAmount>:


uint8_t tempSensor_getOneWireAmount(void)
{
	return oneWireAmount;
}
    2b34:	80 91 58 03 	lds	r24, 0x0358
    2b38:	08 95       	ret

00002b3a <tempSensor_getOneWireID>:


uint8_t tempSensor_getOneWireID(uint8_t index)
{
	return *(&oneWireAddr[0][0]+index);	
    2b3a:	e8 2f       	mov	r30, r24
    2b3c:	f0 e0       	ldi	r31, 0x00	; 0
    2b3e:	ef 58       	subi	r30, 0x8F	; 143
    2b40:	fc 4f       	sbci	r31, 0xFC	; 252
    2b42:	80 81       	ld	r24, Z
    2b44:	08 95       	ret

00002b46 <timer_init>:
// This function initializes the timers TC1 & TC4 for 25.000 kHz PWM.
// TC2 to an other PWM frequency (>20 kHz), TC5 for period measuring and TC 3 for tick generation
void timer_init()
{
	// Three timers for PWM generation.
	TCCR1A = 0b10101000;			// clear up, set down, phase and frequency correct PWM
    2b46:	38 ea       	ldi	r19, 0xA8	; 168
    2b48:	30 93 80 00 	sts	0x0080, r19
	ICR1 = (320 -1);				// 16MHz / (2*320) = 25kHz
    2b4c:	8f e3       	ldi	r24, 0x3F	; 63
    2b4e:	91 e0       	ldi	r25, 0x01	; 1
    2b50:	90 93 87 00 	sts	0x0087, r25
    2b54:	80 93 86 00 	sts	0x0086, r24
									// maximum is 319 so 0 - 319 are allowed values	
	TCCR1B = 0b00010001;			// WGM: 8, 16 MHz
    2b58:	21 e1       	ldi	r18, 0x11	; 17
    2b5a:	20 93 81 00 	sts	0x0081, r18
	
	
	TCCR4A = 0b10101000;			// clear up, set down, phase and frequency correct PWM
    2b5e:	30 93 a0 00 	sts	0x00A0, r19
	ICR4 = (320 -1);				// 16MHz / (2*320) = 25kHz
    2b62:	90 93 a7 00 	sts	0x00A7, r25
    2b66:	80 93 a6 00 	sts	0x00A6, r24
									// maximum is 319 so 0 - 319 are allowed values	
	TCCR4B = 0b00010001;			// WGM: 8, 16 MHz
    2b6a:	20 93 a1 00 	sts	0x00A1, r18
	
	
	TCCR2A = 0b10100001;			// clear up, set down, phase correct PWM
    2b6e:	81 ea       	ldi	r24, 0xA1	; 161
    2b70:	80 93 b0 00 	sts	0x00B0, r24
									// 16MHz / (2*256) = 31.25kHz
									// maximum is 255 so 0 - 255 are allowed values
	TCCR2B = 0b00000001;			// WGM: 8, 16 MHz
    2b74:	81 e0       	ldi	r24, 0x01	; 1
    2b76:	80 93 b1 00 	sts	0x00B1, r24
	
	
		
	// TC5 for period measuring
	TCCR5A = 0b00000000;			// no output compare WGM: normal
    2b7a:	10 92 20 01 	sts	0x0120, r1
	TCCR5B = 0b10000100;			// input noise cancel, falling edge, prescaler = 256
    2b7e:	84 e8       	ldi	r24, 0x84	; 132
    2b80:	80 93 21 01 	sts	0x0121, r24
	TIMSK5 = 0b00100001;			// input capture and overflow interrupt enabled
    2b84:	81 e2       	ldi	r24, 0x21	; 33
    2b86:	80 93 73 00 	sts	0x0073, r24
	
	EICRA = 0b10100000;				// INT2 and INT3 to falling edge
    2b8a:	80 ea       	ldi	r24, 0xA0	; 160
    2b8c:	80 93 69 00 	sts	0x0069, r24
	EICRB = 0b00001010;				// INT4 and INT5 to falling edge
    2b90:	8a e0       	ldi	r24, 0x0A	; 10
    2b92:	80 93 6a 00 	sts	0x006A, r24
	EIMSK = 0b00111100;				// INT2-5 enable
    2b96:	8c e3       	ldi	r24, 0x3C	; 60
    2b98:	8d bb       	out	0x1d, r24	; 29
	
	
	// TC3 for 100 ms trigger
	TCCR3A = 0b00000000;			// no output compare WGM: 12 CTC at ICR3
    2b9a:	10 92 90 00 	sts	0x0090, r1
	OCR3A = 6249;					// 16MHz / (256*6250) = 10Hz
    2b9e:	89 e6       	ldi	r24, 0x69	; 105
    2ba0:	98 e1       	ldi	r25, 0x18	; 24
    2ba2:	90 93 99 00 	sts	0x0099, r25
    2ba6:	80 93 98 00 	sts	0x0098, r24
	TCCR3B = 0b00001100;			// prescaler = 256
    2baa:	8c e0       	ldi	r24, 0x0C	; 12
    2bac:	80 93 91 00 	sts	0x0091, r24
	TIMSK3 = 0b00000010;			// overflow interrupt enabled		
    2bb0:	82 e0       	ldi	r24, 0x02	; 2
    2bb2:	80 93 71 00 	sts	0x0071, r24
    2bb6:	08 95       	ret

00002bb8 <__vector_46>:
}


ISR(TIMER5_CAPT_vect)			// Flow meter
{
    2bb8:	1f 92       	push	r1
    2bba:	0f 92       	push	r0
    2bbc:	0f b6       	in	r0, 0x3f	; 63
    2bbe:	0f 92       	push	r0
    2bc0:	11 24       	eor	r1, r1
    2bc2:	2f 93       	push	r18
    2bc4:	3f 93       	push	r19
    2bc6:	4f 93       	push	r20
    2bc8:	5f 93       	push	r21
    2bca:	8f 93       	push	r24
    2bcc:	9f 93       	push	r25
	uint16_t aValue;
	
	aValue = ICR5;		// Get the counter Value
    2bce:	80 91 26 01 	lds	r24, 0x0126
    2bd2:	90 91 27 01 	lds	r25, 0x0127
	
	if (status_flowMeter < 2)
    2bd6:	20 91 12 02 	lds	r18, 0x0212
    2bda:	22 30       	cpi	r18, 0x02	; 2
    2bdc:	58 f4       	brcc	.+22     	; 0x2bf4 <__vector_46+0x3c>
	{
		period_flowMeter = aValue - oldCount_flowMeter;
    2bde:	20 91 6d 03 	lds	r18, 0x036D
    2be2:	30 91 6e 03 	lds	r19, 0x036E
    2be6:	ac 01       	movw	r20, r24
    2be8:	42 1b       	sub	r20, r18
    2bea:	53 0b       	sbc	r21, r19
    2bec:	50 93 70 03 	sts	0x0370, r21
    2bf0:	40 93 6f 03 	sts	0x036F, r20
	}
	
	oldCount_flowMeter = aValue;
    2bf4:	90 93 6e 03 	sts	0x036E, r25
    2bf8:	80 93 6d 03 	sts	0x036D, r24
	
	if (status_flowMeter > 0)
    2bfc:	80 91 12 02 	lds	r24, 0x0212
    2c00:	88 23       	and	r24, r24
    2c02:	29 f0       	breq	.+10     	; 0x2c0e <__vector_46+0x56>
	{
		status_flowMeter --;
    2c04:	80 91 12 02 	lds	r24, 0x0212
    2c08:	81 50       	subi	r24, 0x01	; 1
    2c0a:	80 93 12 02 	sts	0x0212, r24
	}	
}
    2c0e:	9f 91       	pop	r25
    2c10:	8f 91       	pop	r24
    2c12:	5f 91       	pop	r21
    2c14:	4f 91       	pop	r20
    2c16:	3f 91       	pop	r19
    2c18:	2f 91       	pop	r18
    2c1a:	0f 90       	pop	r0
    2c1c:	0f be       	out	0x3f, r0	; 63
    2c1e:	0f 90       	pop	r0
    2c20:	1f 90       	pop	r1
    2c22:	18 95       	reti

00002c24 <__vector_3>:

ISR(INT2_vect)			// CH1
{
    2c24:	1f 92       	push	r1
    2c26:	0f 92       	push	r0
    2c28:	0f b6       	in	r0, 0x3f	; 63
    2c2a:	0f 92       	push	r0
    2c2c:	11 24       	eor	r1, r1
    2c2e:	0b b6       	in	r0, 0x3b	; 59
    2c30:	0f 92       	push	r0
    2c32:	2f 93       	push	r18
    2c34:	3f 93       	push	r19
    2c36:	4f 93       	push	r20
    2c38:	5f 93       	push	r21
    2c3a:	8f 93       	push	r24
    2c3c:	9f 93       	push	r25
    2c3e:	ef 93       	push	r30
    2c40:	ff 93       	push	r31
	uint16_t aValue;
	
	aValue = TCNT5;		// Get the counter Value
    2c42:	80 91 24 01 	lds	r24, 0x0124
    2c46:	90 91 25 01 	lds	r25, 0x0125
	
	if (status_CH[0] < 2)
    2c4a:	20 91 0e 02 	lds	r18, 0x020E
    2c4e:	22 30       	cpi	r18, 0x02	; 2
    2c50:	58 f4       	brcc	.+22     	; 0x2c68 <__vector_3+0x44>
	{
		period_CH[0] = aValue - oldCount_CH[0];
    2c52:	20 91 5c 03 	lds	r18, 0x035C
    2c56:	30 91 5d 03 	lds	r19, 0x035D
    2c5a:	ac 01       	movw	r20, r24
    2c5c:	42 1b       	sub	r20, r18
    2c5e:	53 0b       	sbc	r21, r19
    2c60:	50 93 65 03 	sts	0x0365, r21
    2c64:	40 93 64 03 	sts	0x0364, r20
	}
	
	oldCount_CH[0] = aValue;
    2c68:	90 93 5d 03 	sts	0x035D, r25
    2c6c:	80 93 5c 03 	sts	0x035C, r24
	
	if (status_CH[0] > 0)
    2c70:	80 91 0e 02 	lds	r24, 0x020E
    2c74:	88 23       	and	r24, r24
    2c76:	29 f0       	breq	.+10     	; 0x2c82 <__vector_3+0x5e>
	{
		status_CH[0] --;
    2c78:	ee e0       	ldi	r30, 0x0E	; 14
    2c7a:	f2 e0       	ldi	r31, 0x02	; 2
    2c7c:	80 81       	ld	r24, Z
    2c7e:	81 50       	subi	r24, 0x01	; 1
    2c80:	80 83       	st	Z, r24
	}	
}
    2c82:	ff 91       	pop	r31
    2c84:	ef 91       	pop	r30
    2c86:	9f 91       	pop	r25
    2c88:	8f 91       	pop	r24
    2c8a:	5f 91       	pop	r21
    2c8c:	4f 91       	pop	r20
    2c8e:	3f 91       	pop	r19
    2c90:	2f 91       	pop	r18
    2c92:	0f 90       	pop	r0
    2c94:	0b be       	out	0x3b, r0	; 59
    2c96:	0f 90       	pop	r0
    2c98:	0f be       	out	0x3f, r0	; 63
    2c9a:	0f 90       	pop	r0
    2c9c:	1f 90       	pop	r1
    2c9e:	18 95       	reti

00002ca0 <__vector_4>:

ISR(INT3_vect)			// CH2
{
    2ca0:	1f 92       	push	r1
    2ca2:	0f 92       	push	r0
    2ca4:	0f b6       	in	r0, 0x3f	; 63
    2ca6:	0f 92       	push	r0
    2ca8:	11 24       	eor	r1, r1
    2caa:	0b b6       	in	r0, 0x3b	; 59
    2cac:	0f 92       	push	r0
    2cae:	2f 93       	push	r18
    2cb0:	3f 93       	push	r19
    2cb2:	4f 93       	push	r20
    2cb4:	5f 93       	push	r21
    2cb6:	8f 93       	push	r24
    2cb8:	9f 93       	push	r25
    2cba:	ef 93       	push	r30
    2cbc:	ff 93       	push	r31
	uint16_t aValue;
	
	aValue = TCNT5;		// Get the counter Value
    2cbe:	80 91 24 01 	lds	r24, 0x0124
    2cc2:	90 91 25 01 	lds	r25, 0x0125
	
	if (status_CH[1] < 2)
    2cc6:	20 91 0f 02 	lds	r18, 0x020F
    2cca:	22 30       	cpi	r18, 0x02	; 2
    2ccc:	58 f4       	brcc	.+22     	; 0x2ce4 <__vector_4+0x44>
	{
		period_CH[1] = aValue - oldCount_CH[1];
    2cce:	20 91 5e 03 	lds	r18, 0x035E
    2cd2:	30 91 5f 03 	lds	r19, 0x035F
    2cd6:	ac 01       	movw	r20, r24
    2cd8:	42 1b       	sub	r20, r18
    2cda:	53 0b       	sbc	r21, r19
    2cdc:	50 93 67 03 	sts	0x0367, r21
    2ce0:	40 93 66 03 	sts	0x0366, r20
	}
	
	oldCount_CH[1] = aValue;
    2ce4:	90 93 5f 03 	sts	0x035F, r25
    2ce8:	80 93 5e 03 	sts	0x035E, r24
	
	if (status_CH[1] > 0)
    2cec:	80 91 0f 02 	lds	r24, 0x020F
    2cf0:	88 23       	and	r24, r24
    2cf2:	29 f0       	breq	.+10     	; 0x2cfe <__vector_4+0x5e>
	{
		status_CH[1] --;
    2cf4:	ef e0       	ldi	r30, 0x0F	; 15
    2cf6:	f2 e0       	ldi	r31, 0x02	; 2
    2cf8:	80 81       	ld	r24, Z
    2cfa:	81 50       	subi	r24, 0x01	; 1
    2cfc:	80 83       	st	Z, r24
	}
}
    2cfe:	ff 91       	pop	r31
    2d00:	ef 91       	pop	r30
    2d02:	9f 91       	pop	r25
    2d04:	8f 91       	pop	r24
    2d06:	5f 91       	pop	r21
    2d08:	4f 91       	pop	r20
    2d0a:	3f 91       	pop	r19
    2d0c:	2f 91       	pop	r18
    2d0e:	0f 90       	pop	r0
    2d10:	0b be       	out	0x3b, r0	; 59
    2d12:	0f 90       	pop	r0
    2d14:	0f be       	out	0x3f, r0	; 63
    2d16:	0f 90       	pop	r0
    2d18:	1f 90       	pop	r1
    2d1a:	18 95       	reti

00002d1c <__vector_6>:

ISR(INT5_vect)			// CH3
{
    2d1c:	1f 92       	push	r1
    2d1e:	0f 92       	push	r0
    2d20:	0f b6       	in	r0, 0x3f	; 63
    2d22:	0f 92       	push	r0
    2d24:	11 24       	eor	r1, r1
    2d26:	0b b6       	in	r0, 0x3b	; 59
    2d28:	0f 92       	push	r0
    2d2a:	2f 93       	push	r18
    2d2c:	3f 93       	push	r19
    2d2e:	4f 93       	push	r20
    2d30:	5f 93       	push	r21
    2d32:	8f 93       	push	r24
    2d34:	9f 93       	push	r25
    2d36:	ef 93       	push	r30
    2d38:	ff 93       	push	r31
	uint16_t aValue;
	
	aValue = TCNT5;		// Get the counter Value
    2d3a:	80 91 24 01 	lds	r24, 0x0124
    2d3e:	90 91 25 01 	lds	r25, 0x0125
	
	if (status_CH[2] < 2)
    2d42:	20 91 10 02 	lds	r18, 0x0210
    2d46:	22 30       	cpi	r18, 0x02	; 2
    2d48:	58 f4       	brcc	.+22     	; 0x2d60 <__vector_6+0x44>
	{
		period_CH[2] = aValue - oldCount_CH[2];
    2d4a:	20 91 60 03 	lds	r18, 0x0360
    2d4e:	30 91 61 03 	lds	r19, 0x0361
    2d52:	ac 01       	movw	r20, r24
    2d54:	42 1b       	sub	r20, r18
    2d56:	53 0b       	sbc	r21, r19
    2d58:	50 93 69 03 	sts	0x0369, r21
    2d5c:	40 93 68 03 	sts	0x0368, r20
	}
	
	oldCount_CH[2] = aValue;
    2d60:	90 93 61 03 	sts	0x0361, r25
    2d64:	80 93 60 03 	sts	0x0360, r24
	
	if (status_CH[2] > 0)
    2d68:	80 91 10 02 	lds	r24, 0x0210
    2d6c:	88 23       	and	r24, r24
    2d6e:	29 f0       	breq	.+10     	; 0x2d7a <__vector_6+0x5e>
	{
		status_CH[2] --;
    2d70:	e0 e1       	ldi	r30, 0x10	; 16
    2d72:	f2 e0       	ldi	r31, 0x02	; 2
    2d74:	80 81       	ld	r24, Z
    2d76:	81 50       	subi	r24, 0x01	; 1
    2d78:	80 83       	st	Z, r24
	}
}
    2d7a:	ff 91       	pop	r31
    2d7c:	ef 91       	pop	r30
    2d7e:	9f 91       	pop	r25
    2d80:	8f 91       	pop	r24
    2d82:	5f 91       	pop	r21
    2d84:	4f 91       	pop	r20
    2d86:	3f 91       	pop	r19
    2d88:	2f 91       	pop	r18
    2d8a:	0f 90       	pop	r0
    2d8c:	0b be       	out	0x3b, r0	; 59
    2d8e:	0f 90       	pop	r0
    2d90:	0f be       	out	0x3f, r0	; 63
    2d92:	0f 90       	pop	r0
    2d94:	1f 90       	pop	r1
    2d96:	18 95       	reti

00002d98 <__vector_5>:

ISR(INT4_vect)			// CH4
{
    2d98:	1f 92       	push	r1
    2d9a:	0f 92       	push	r0
    2d9c:	0f b6       	in	r0, 0x3f	; 63
    2d9e:	0f 92       	push	r0
    2da0:	11 24       	eor	r1, r1
    2da2:	0b b6       	in	r0, 0x3b	; 59
    2da4:	0f 92       	push	r0
    2da6:	2f 93       	push	r18
    2da8:	3f 93       	push	r19
    2daa:	4f 93       	push	r20
    2dac:	5f 93       	push	r21
    2dae:	8f 93       	push	r24
    2db0:	9f 93       	push	r25
    2db2:	ef 93       	push	r30
    2db4:	ff 93       	push	r31
	uint16_t aValue;
	
	aValue = TCNT5;		// Get the counter Value
    2db6:	80 91 24 01 	lds	r24, 0x0124
    2dba:	90 91 25 01 	lds	r25, 0x0125
	
	if (status_CH[3] < 2)
    2dbe:	20 91 11 02 	lds	r18, 0x0211
    2dc2:	22 30       	cpi	r18, 0x02	; 2
    2dc4:	58 f4       	brcc	.+22     	; 0x2ddc <__vector_5+0x44>
	{
		period_CH[3] = aValue - oldCount_CH[3];
    2dc6:	20 91 62 03 	lds	r18, 0x0362
    2dca:	30 91 63 03 	lds	r19, 0x0363
    2dce:	ac 01       	movw	r20, r24
    2dd0:	42 1b       	sub	r20, r18
    2dd2:	53 0b       	sbc	r21, r19
    2dd4:	50 93 6b 03 	sts	0x036B, r21
    2dd8:	40 93 6a 03 	sts	0x036A, r20
	}
	
	oldCount_CH[3] = aValue;
    2ddc:	90 93 63 03 	sts	0x0363, r25
    2de0:	80 93 62 03 	sts	0x0362, r24
	
	if (status_CH[3] > 0)
    2de4:	80 91 11 02 	lds	r24, 0x0211
    2de8:	88 23       	and	r24, r24
    2dea:	29 f0       	breq	.+10     	; 0x2df6 <__vector_5+0x5e>
	{
		status_CH[3] --;
    2dec:	e1 e1       	ldi	r30, 0x11	; 17
    2dee:	f2 e0       	ldi	r31, 0x02	; 2
    2df0:	80 81       	ld	r24, Z
    2df2:	81 50       	subi	r24, 0x01	; 1
    2df4:	80 83       	st	Z, r24
	}
}
    2df6:	ff 91       	pop	r31
    2df8:	ef 91       	pop	r30
    2dfa:	9f 91       	pop	r25
    2dfc:	8f 91       	pop	r24
    2dfe:	5f 91       	pop	r21
    2e00:	4f 91       	pop	r20
    2e02:	3f 91       	pop	r19
    2e04:	2f 91       	pop	r18
    2e06:	0f 90       	pop	r0
    2e08:	0b be       	out	0x3b, r0	; 59
    2e0a:	0f 90       	pop	r0
    2e0c:	0f be       	out	0x3f, r0	; 63
    2e0e:	0f 90       	pop	r0
    2e10:	1f 90       	pop	r1
    2e12:	18 95       	reti

00002e14 <__vector_50>:

ISR(TIMER5_OVF_vect)			// Each 1048.576 ms
{
    2e14:	1f 92       	push	r1
    2e16:	0f 92       	push	r0
    2e18:	0f b6       	in	r0, 0x3f	; 63
    2e1a:	0f 92       	push	r0
    2e1c:	11 24       	eor	r1, r1
    2e1e:	0b b6       	in	r0, 0x3b	; 59
    2e20:	0f 92       	push	r0
    2e22:	2f 93       	push	r18
    2e24:	3f 93       	push	r19
    2e26:	8f 93       	push	r24
    2e28:	9f 93       	push	r25
    2e2a:	af 93       	push	r26
    2e2c:	bf 93       	push	r27
    2e2e:	ef 93       	push	r30
    2e30:	ff 93       	push	r31
	enable_flowMeter = status_flowMeter;	
    2e32:	80 91 12 02 	lds	r24, 0x0212
    2e36:	80 93 6c 03 	sts	0x036C, r24
	status_flowMeter = 2;
    2e3a:	82 e0       	ldi	r24, 0x02	; 2
    2e3c:	80 93 12 02 	sts	0x0212, r24
    2e40:	80 e0       	ldi	r24, 0x00	; 0
    2e42:	90 e0       	ldi	r25, 0x00	; 0
	
	for (uint8_t i = 0;i<4;i++)
	{
		enable_CH[i] = status_CH[i];
		status_CH[i] = 2;
    2e44:	32 e0       	ldi	r19, 0x02	; 2
	enable_flowMeter = status_flowMeter;	
	status_flowMeter = 2;
	
	for (uint8_t i = 0;i<4;i++)
	{
		enable_CH[i] = status_CH[i];
    2e46:	fc 01       	movw	r30, r24
    2e48:	e2 5f       	subi	r30, 0xF2	; 242
    2e4a:	fd 4f       	sbci	r31, 0xFD	; 253
    2e4c:	20 81       	ld	r18, Z
    2e4e:	dc 01       	movw	r26, r24
    2e50:	a6 5f       	subi	r26, 0xF6	; 246
    2e52:	bd 4f       	sbci	r27, 0xFD	; 253
    2e54:	2c 93       	st	X, r18
		status_CH[i] = 2;
    2e56:	30 83       	st	Z, r19
    2e58:	01 96       	adiw	r24, 0x01	; 1
ISR(TIMER5_OVF_vect)			// Each 1048.576 ms
{
	enable_flowMeter = status_flowMeter;	
	status_flowMeter = 2;
	
	for (uint8_t i = 0;i<4;i++)
    2e5a:	84 30       	cpi	r24, 0x04	; 4
    2e5c:	91 05       	cpc	r25, r1
    2e5e:	99 f7       	brne	.-26     	; 0x2e46 <__vector_50+0x32>
	{
		enable_CH[i] = status_CH[i];
		status_CH[i] = 2;
	}
}
    2e60:	ff 91       	pop	r31
    2e62:	ef 91       	pop	r30
    2e64:	bf 91       	pop	r27
    2e66:	af 91       	pop	r26
    2e68:	9f 91       	pop	r25
    2e6a:	8f 91       	pop	r24
    2e6c:	3f 91       	pop	r19
    2e6e:	2f 91       	pop	r18
    2e70:	0f 90       	pop	r0
    2e72:	0b be       	out	0x3b, r0	; 59
    2e74:	0f 90       	pop	r0
    2e76:	0f be       	out	0x3f, r0	; 63
    2e78:	0f 90       	pop	r0
    2e7a:	1f 90       	pop	r1
    2e7c:	18 95       	reti

00002e7e <__vector_32>:

ISR(TIMER3_COMPA_vect)			// Each 100.000 ms
{
    2e7e:	1f 92       	push	r1
    2e80:	0f 92       	push	r0
    2e82:	0f b6       	in	r0, 0x3f	; 63
    2e84:	0f 92       	push	r0
    2e86:	11 24       	eor	r1, r1
    2e88:	8f 93       	push	r24
	timer100msTick = 1;		// set the tick
    2e8a:	81 e0       	ldi	r24, 0x01	; 1
    2e8c:	80 93 5a 03 	sts	0x035A, r24
	
	if (tickscaler == 4)
    2e90:	80 91 59 03 	lds	r24, 0x0359
    2e94:	84 30       	cpi	r24, 0x04	; 4
    2e96:	31 f4       	brne	.+12     	; 0x2ea4 <__vector_32+0x26>
	{
		timer524msTick = 1;		// set the tick
    2e98:	81 e0       	ldi	r24, 0x01	; 1
    2e9a:	80 93 5b 03 	sts	0x035B, r24
		tickscaler = 0;
    2e9e:	10 92 59 03 	sts	0x0359, r1
    2ea2:	05 c0       	rjmp	.+10     	; 0x2eae <__vector_32+0x30>
	}
	else
	{
		tickscaler ++;
    2ea4:	80 91 59 03 	lds	r24, 0x0359
    2ea8:	8f 5f       	subi	r24, 0xFF	; 255
    2eaa:	80 93 59 03 	sts	0x0359, r24
	}
}
    2eae:	8f 91       	pop	r24
    2eb0:	0f 90       	pop	r0
    2eb2:	0f be       	out	0x3f, r0	; 63
    2eb4:	0f 90       	pop	r0
    2eb6:	1f 90       	pop	r1
    2eb8:	18 95       	reti

00002eba <timer_setPwm>:

void timer_setPwm(uint8_t channel, uint8_t pwmValue)
{
	// check if pwmValue is a valid percent number
	if (pwmValue < 101)
    2eba:	65 36       	cpi	r22, 0x65	; 101
    2ebc:	08 f0       	brcs	.+2      	; 0x2ec0 <timer_setPwm+0x6>
    2ebe:	85 c0       	rjmp	.+266    	; 0x2fca <timer_setPwm+0x110>
	{
						
		switch (channel)					// select the channel
    2ec0:	83 30       	cpi	r24, 0x03	; 3
    2ec2:	09 f4       	brne	.+2      	; 0x2ec6 <timer_setPwm+0xc>
    2ec4:	40 c0       	rjmp	.+128    	; 0x2f46 <timer_setPwm+0x8c>
    2ec6:	20 f4       	brcc	.+8      	; 0x2ed0 <timer_setPwm+0x16>
    2ec8:	81 30       	cpi	r24, 0x01	; 1
    2eca:	e9 f0       	breq	.+58     	; 0x2f06 <timer_setPwm+0x4c>
    2ecc:	58 f5       	brcc	.+86     	; 0x2f24 <timer_setPwm+0x6a>
    2ece:	0c c0       	rjmp	.+24     	; 0x2ee8 <timer_setPwm+0x2e>
    2ed0:	85 30       	cpi	r24, 0x05	; 5
    2ed2:	09 f4       	brne	.+2      	; 0x2ed6 <timer_setPwm+0x1c>
    2ed4:	53 c0       	rjmp	.+166    	; 0x2f7c <timer_setPwm+0xc2>
    2ed6:	08 f4       	brcc	.+2      	; 0x2eda <timer_setPwm+0x20>
    2ed8:	47 c0       	rjmp	.+142    	; 0x2f68 <timer_setPwm+0xae>
    2eda:	86 30       	cpi	r24, 0x06	; 6
    2edc:	09 f4       	brne	.+2      	; 0x2ee0 <timer_setPwm+0x26>
    2ede:	5d c0       	rjmp	.+186    	; 0x2f9a <timer_setPwm+0xe0>
    2ee0:	87 30       	cpi	r24, 0x07	; 7
    2ee2:	09 f0       	breq	.+2      	; 0x2ee6 <timer_setPwm+0x2c>
    2ee4:	72 c0       	rjmp	.+228    	; 0x2fca <timer_setPwm+0x110>
    2ee6:	63 c0       	rjmp	.+198    	; 0x2fae <timer_setPwm+0xf4>
		{
			case 0:
				R_CH1 = (319*pwmValue)/100;	// change the value
    2ee8:	2f e3       	ldi	r18, 0x3F	; 63
    2eea:	31 e0       	ldi	r19, 0x01	; 1
    2eec:	62 9f       	mul	r22, r18
    2eee:	c0 01       	movw	r24, r0
    2ef0:	63 9f       	mul	r22, r19
    2ef2:	90 0d       	add	r25, r0
    2ef4:	11 24       	eor	r1, r1
    2ef6:	64 e6       	ldi	r22, 0x64	; 100
    2ef8:	70 e0       	ldi	r23, 0x00	; 0
    2efa:	bd d0       	rcall	.+378    	; 0x3076 <__divmodhi4>
    2efc:	70 93 8d 00 	sts	0x008D, r23
    2f00:	60 93 8c 00 	sts	0x008C, r22
				break;
    2f04:	08 95       	ret
			case 1:
				R_CH2 = (319*pwmValue)/100;
    2f06:	2f e3       	ldi	r18, 0x3F	; 63
    2f08:	31 e0       	ldi	r19, 0x01	; 1
    2f0a:	62 9f       	mul	r22, r18
    2f0c:	c0 01       	movw	r24, r0
    2f0e:	63 9f       	mul	r22, r19
    2f10:	90 0d       	add	r25, r0
    2f12:	11 24       	eor	r1, r1
    2f14:	64 e6       	ldi	r22, 0x64	; 100
    2f16:	70 e0       	ldi	r23, 0x00	; 0
    2f18:	ae d0       	rcall	.+348    	; 0x3076 <__divmodhi4>
    2f1a:	70 93 8b 00 	sts	0x008B, r23
    2f1e:	60 93 8a 00 	sts	0x008A, r22
				break;
    2f22:	08 95       	ret
			case 2:
				R_CH3 = 319-(319*pwmValue)/100;
    2f24:	2f e3       	ldi	r18, 0x3F	; 63
    2f26:	31 e0       	ldi	r19, 0x01	; 1
    2f28:	62 9f       	mul	r22, r18
    2f2a:	c0 01       	movw	r24, r0
    2f2c:	63 9f       	mul	r22, r19
    2f2e:	90 0d       	add	r25, r0
    2f30:	11 24       	eor	r1, r1
    2f32:	64 e6       	ldi	r22, 0x64	; 100
    2f34:	70 e0       	ldi	r23, 0x00	; 0
    2f36:	9f d0       	rcall	.+318    	; 0x3076 <__divmodhi4>
    2f38:	26 1b       	sub	r18, r22
    2f3a:	37 0b       	sbc	r19, r23
    2f3c:	30 93 ad 00 	sts	0x00AD, r19
    2f40:	20 93 ac 00 	sts	0x00AC, r18
				break;
    2f44:	08 95       	ret
			case 3:
				R_CH4 = 319-(319*pwmValue)/100;
    2f46:	2f e3       	ldi	r18, 0x3F	; 63
    2f48:	31 e0       	ldi	r19, 0x01	; 1
    2f4a:	62 9f       	mul	r22, r18
    2f4c:	c0 01       	movw	r24, r0
    2f4e:	63 9f       	mul	r22, r19
    2f50:	90 0d       	add	r25, r0
    2f52:	11 24       	eor	r1, r1
    2f54:	64 e6       	ldi	r22, 0x64	; 100
    2f56:	70 e0       	ldi	r23, 0x00	; 0
    2f58:	8e d0       	rcall	.+284    	; 0x3076 <__divmodhi4>
    2f5a:	26 1b       	sub	r18, r22
    2f5c:	37 0b       	sbc	r19, r23
    2f5e:	30 93 ab 00 	sts	0x00AB, r19
    2f62:	20 93 aa 00 	sts	0x00AA, r18
				break;			
    2f66:	08 95       	ret
			case LED_RED:
				R_LED_RED = (uint8_t)((255*pwmValue)/100);		
    2f68:	2f ef       	ldi	r18, 0xFF	; 255
    2f6a:	62 9f       	mul	r22, r18
    2f6c:	c0 01       	movw	r24, r0
    2f6e:	11 24       	eor	r1, r1
    2f70:	64 e6       	ldi	r22, 0x64	; 100
    2f72:	70 e0       	ldi	r23, 0x00	; 0
    2f74:	80 d0       	rcall	.+256    	; 0x3076 <__divmodhi4>
    2f76:	60 93 b4 00 	sts	0x00B4, r22
				break;
    2f7a:	08 95       	ret
			case LED_GREEN:
				R_LED_GREEN = (319*pwmValue)/100;
    2f7c:	2f e3       	ldi	r18, 0x3F	; 63
    2f7e:	31 e0       	ldi	r19, 0x01	; 1
    2f80:	62 9f       	mul	r22, r18
    2f82:	c0 01       	movw	r24, r0
    2f84:	63 9f       	mul	r22, r19
    2f86:	90 0d       	add	r25, r0
    2f88:	11 24       	eor	r1, r1
    2f8a:	64 e6       	ldi	r22, 0x64	; 100
    2f8c:	70 e0       	ldi	r23, 0x00	; 0
    2f8e:	73 d0       	rcall	.+230    	; 0x3076 <__divmodhi4>
    2f90:	70 93 89 00 	sts	0x0089, r23
    2f94:	60 93 88 00 	sts	0x0088, r22
				break;
    2f98:	08 95       	ret
			case LED_BLUE:
				R_LED_BLUE = (uint8_t)((255*pwmValue)/100);
    2f9a:	2f ef       	ldi	r18, 0xFF	; 255
    2f9c:	62 9f       	mul	r22, r18
    2f9e:	c0 01       	movw	r24, r0
    2fa0:	11 24       	eor	r1, r1
    2fa2:	64 e6       	ldi	r22, 0x64	; 100
    2fa4:	70 e0       	ldi	r23, 0x00	; 0
    2fa6:	67 d0       	rcall	.+206    	; 0x3076 <__divmodhi4>
    2fa8:	60 93 b3 00 	sts	0x00B3, r22
				break;
    2fac:	08 95       	ret
			case BACKLIGHT:
				R_BACKLIGHT = (319*pwmValue)/100;
    2fae:	2f e3       	ldi	r18, 0x3F	; 63
    2fb0:	31 e0       	ldi	r19, 0x01	; 1
    2fb2:	62 9f       	mul	r22, r18
    2fb4:	c0 01       	movw	r24, r0
    2fb6:	63 9f       	mul	r22, r19
    2fb8:	90 0d       	add	r25, r0
    2fba:	11 24       	eor	r1, r1
    2fbc:	64 e6       	ldi	r22, 0x64	; 100
    2fbe:	70 e0       	ldi	r23, 0x00	; 0
    2fc0:	5a d0       	rcall	.+180    	; 0x3076 <__divmodhi4>
    2fc2:	70 93 a9 00 	sts	0x00A9, r23
    2fc6:	60 93 a8 00 	sts	0x00A8, r22
    2fca:	08 95       	ret

00002fcc <timer_getRpm>:


// Get rotation per minute of a fan. A fan makes two impulses per rpm!
uint16_t timer_getRpm(uint8_t channel)
{
	if (enable_CH[channel] == 0)	// Channel is enabled.
    2fcc:	90 e0       	ldi	r25, 0x00	; 0
    2fce:	fc 01       	movw	r30, r24
    2fd0:	e6 5f       	subi	r30, 0xF6	; 246
    2fd2:	fd 4f       	sbci	r31, 0xFD	; 253
    2fd4:	20 81       	ld	r18, Z
    2fd6:	21 11       	cpse	r18, r1
    2fd8:	16 c0       	rjmp	.+44     	; 0x3006 <timer_getRpm+0x3a>
	{
		uint32_t dummy = (uint32_t)period_CH[channel] * 2;
    2fda:	fc 01       	movw	r30, r24
    2fdc:	ee 0f       	add	r30, r30
    2fde:	ff 1f       	adc	r31, r31
    2fe0:	ec 59       	subi	r30, 0x9C	; 156
    2fe2:	fc 4f       	sbci	r31, 0xFC	; 252
    2fe4:	20 81       	ld	r18, Z
    2fe6:	31 81       	ldd	r19, Z+1	; 0x01
    2fe8:	c9 01       	movw	r24, r18
    2fea:	a0 e0       	ldi	r26, 0x00	; 0
    2fec:	b0 e0       	ldi	r27, 0x00	; 0
    2fee:	9c 01       	movw	r18, r24
    2ff0:	ad 01       	movw	r20, r26
    2ff2:	22 0f       	add	r18, r18
    2ff4:	33 1f       	adc	r19, r19
    2ff6:	44 1f       	adc	r20, r20
    2ff8:	55 1f       	adc	r21, r21
		return ((uint16_t)(3750000UL / dummy));			
    2ffa:	60 e7       	ldi	r22, 0x70	; 112
    2ffc:	78 e3       	ldi	r23, 0x38	; 56
    2ffe:	89 e3       	ldi	r24, 0x39	; 57
    3000:	90 e0       	ldi	r25, 0x00	; 0
    3002:	4c d0       	rcall	.+152    	; 0x309c <__udivmodsi4>
    3004:	02 c0       	rjmp	.+4      	; 0x300a <timer_getRpm+0x3e>
	} 
	else							// Channel is disabled.
	{
		return 0;
    3006:	20 e0       	ldi	r18, 0x00	; 0
    3008:	30 e0       	ldi	r19, 0x00	; 0
	}
}
    300a:	82 2f       	mov	r24, r18
    300c:	93 2f       	mov	r25, r19
    300e:	08 95       	ret

00003010 <timer_getLH>:

// Get liters per hour of the flow meter.
uint16_t timer_getLH(void)
{
	if (enable_flowMeter == 0)		// Flow meter is enabled
    3010:	80 91 6c 03 	lds	r24, 0x036C
    3014:	81 11       	cpse	r24, r1
    3016:	11 c0       	rjmp	.+34     	; 0x303a <timer_getLH+0x2a>
	{
		uint32_t dummy = (uint32_t)period_flowMeter * impulsePerLiter;
    3018:	a0 91 6f 03 	lds	r26, 0x036F
    301c:	b0 91 70 03 	lds	r27, 0x0370
    3020:	20 91 08 02 	lds	r18, 0x0208
    3024:	30 91 09 02 	lds	r19, 0x0209
    3028:	61 d0       	rcall	.+194    	; 0x30ec <__umulhisi3>
    302a:	9b 01       	movw	r18, r22
    302c:	ac 01       	movw	r20, r24
		return (uint16_t)(225000000UL / dummy);		
    302e:	60 e4       	ldi	r22, 0x40	; 64
    3030:	7a e3       	ldi	r23, 0x3A	; 58
    3032:	89 e6       	ldi	r24, 0x69	; 105
    3034:	9d e0       	ldi	r25, 0x0D	; 13
    3036:	32 d0       	rcall	.+100    	; 0x309c <__udivmodsi4>
    3038:	02 c0       	rjmp	.+4      	; 0x303e <timer_getLH+0x2e>
	} 
	else
	{
		return 0;
    303a:	20 e0       	ldi	r18, 0x00	; 0
    303c:	30 e0       	ldi	r19, 0x00	; 0
	}
}
    303e:	82 2f       	mov	r24, r18
    3040:	93 2f       	mov	r25, r19
    3042:	08 95       	ret

00003044 <timer_setImpulsePerLiter>:

void timer_setImpulsePerLiter(uint16_t aValue)
{
	impulsePerLiter = aValue;	
    3044:	90 93 09 02 	sts	0x0209, r25
    3048:	80 93 08 02 	sts	0x0208, r24
    304c:	08 95       	ret

0000304e <timer_524ms>:
}


uint8_t timer_524ms(void)
{
	if (timer524msTick)
    304e:	80 91 5b 03 	lds	r24, 0x035B
    3052:	88 23       	and	r24, r24
    3054:	21 f0       	breq	.+8      	; 0x305e <timer_524ms+0x10>
	{
		timer524msTick = 0;
    3056:	10 92 5b 03 	sts	0x035B, r1
		return 1;
    305a:	81 e0       	ldi	r24, 0x01	; 1
    305c:	08 95       	ret
	} 
	else
	{
		return 0;
    305e:	80 e0       	ldi	r24, 0x00	; 0
	}	
}
    3060:	08 95       	ret

00003062 <timer_100ms>:


uint8_t timer_100ms(void)
{
	if (timer100msTick)
    3062:	80 91 5a 03 	lds	r24, 0x035A
    3066:	88 23       	and	r24, r24
    3068:	21 f0       	breq	.+8      	; 0x3072 <timer_100ms+0x10>
	{
		timer100msTick = 0;
    306a:	10 92 5a 03 	sts	0x035A, r1
		return 1;
    306e:	81 e0       	ldi	r24, 0x01	; 1
    3070:	08 95       	ret
	}
	else
	{
		return 0;
    3072:	80 e0       	ldi	r24, 0x00	; 0
	}
    3074:	08 95       	ret

00003076 <__divmodhi4>:
    3076:	97 fb       	bst	r25, 7
    3078:	07 2e       	mov	r0, r23
    307a:	16 f4       	brtc	.+4      	; 0x3080 <__divmodhi4+0xa>
    307c:	00 94       	com	r0
    307e:	06 d0       	rcall	.+12     	; 0x308c <__divmodhi4_neg1>
    3080:	77 fd       	sbrc	r23, 7
    3082:	08 d0       	rcall	.+16     	; 0x3094 <__divmodhi4_neg2>
    3084:	3f d0       	rcall	.+126    	; 0x3104 <__udivmodhi4>
    3086:	07 fc       	sbrc	r0, 7
    3088:	05 d0       	rcall	.+10     	; 0x3094 <__divmodhi4_neg2>
    308a:	3e f4       	brtc	.+14     	; 0x309a <__divmodhi4_exit>

0000308c <__divmodhi4_neg1>:
    308c:	90 95       	com	r25
    308e:	81 95       	neg	r24
    3090:	9f 4f       	sbci	r25, 0xFF	; 255
    3092:	08 95       	ret

00003094 <__divmodhi4_neg2>:
    3094:	70 95       	com	r23
    3096:	61 95       	neg	r22
    3098:	7f 4f       	sbci	r23, 0xFF	; 255

0000309a <__divmodhi4_exit>:
    309a:	08 95       	ret

0000309c <__udivmodsi4>:
    309c:	a1 e2       	ldi	r26, 0x21	; 33
    309e:	1a 2e       	mov	r1, r26
    30a0:	aa 1b       	sub	r26, r26
    30a2:	bb 1b       	sub	r27, r27
    30a4:	fd 01       	movw	r30, r26
    30a6:	0d c0       	rjmp	.+26     	; 0x30c2 <__udivmodsi4_ep>

000030a8 <__udivmodsi4_loop>:
    30a8:	aa 1f       	adc	r26, r26
    30aa:	bb 1f       	adc	r27, r27
    30ac:	ee 1f       	adc	r30, r30
    30ae:	ff 1f       	adc	r31, r31
    30b0:	a2 17       	cp	r26, r18
    30b2:	b3 07       	cpc	r27, r19
    30b4:	e4 07       	cpc	r30, r20
    30b6:	f5 07       	cpc	r31, r21
    30b8:	20 f0       	brcs	.+8      	; 0x30c2 <__udivmodsi4_ep>
    30ba:	a2 1b       	sub	r26, r18
    30bc:	b3 0b       	sbc	r27, r19
    30be:	e4 0b       	sbc	r30, r20
    30c0:	f5 0b       	sbc	r31, r21

000030c2 <__udivmodsi4_ep>:
    30c2:	66 1f       	adc	r22, r22
    30c4:	77 1f       	adc	r23, r23
    30c6:	88 1f       	adc	r24, r24
    30c8:	99 1f       	adc	r25, r25
    30ca:	1a 94       	dec	r1
    30cc:	69 f7       	brne	.-38     	; 0x30a8 <__udivmodsi4_loop>
    30ce:	60 95       	com	r22
    30d0:	70 95       	com	r23
    30d2:	80 95       	com	r24
    30d4:	90 95       	com	r25
    30d6:	9b 01       	movw	r18, r22
    30d8:	ac 01       	movw	r20, r24
    30da:	bd 01       	movw	r22, r26
    30dc:	cf 01       	movw	r24, r30
    30de:	08 95       	ret

000030e0 <__tablejump2__>:
    30e0:	ee 0f       	add	r30, r30
    30e2:	ff 1f       	adc	r31, r31

000030e4 <__tablejump__>:
    30e4:	05 90       	lpm	r0, Z+
    30e6:	f4 91       	lpm	r31, Z
    30e8:	e0 2d       	mov	r30, r0
    30ea:	19 94       	eijmp

000030ec <__umulhisi3>:
    30ec:	a2 9f       	mul	r26, r18
    30ee:	b0 01       	movw	r22, r0
    30f0:	b3 9f       	mul	r27, r19
    30f2:	c0 01       	movw	r24, r0
    30f4:	a3 9f       	mul	r26, r19
    30f6:	01 d0       	rcall	.+2      	; 0x30fa <__umulhisi3+0xe>
    30f8:	b2 9f       	mul	r27, r18
    30fa:	70 0d       	add	r23, r0
    30fc:	81 1d       	adc	r24, r1
    30fe:	11 24       	eor	r1, r1
    3100:	91 1d       	adc	r25, r1
    3102:	08 95       	ret

00003104 <__udivmodhi4>:
    3104:	aa 1b       	sub	r26, r26
    3106:	bb 1b       	sub	r27, r27
    3108:	51 e1       	ldi	r21, 0x11	; 17
    310a:	07 c0       	rjmp	.+14     	; 0x311a <__udivmodhi4_ep>

0000310c <__udivmodhi4_loop>:
    310c:	aa 1f       	adc	r26, r26
    310e:	bb 1f       	adc	r27, r27
    3110:	a6 17       	cp	r26, r22
    3112:	b7 07       	cpc	r27, r23
    3114:	10 f0       	brcs	.+4      	; 0x311a <__udivmodhi4_ep>
    3116:	a6 1b       	sub	r26, r22
    3118:	b7 0b       	sbc	r27, r23

0000311a <__udivmodhi4_ep>:
    311a:	88 1f       	adc	r24, r24
    311c:	99 1f       	adc	r25, r25
    311e:	5a 95       	dec	r21
    3120:	a9 f7       	brne	.-22     	; 0x310c <__udivmodhi4_loop>
    3122:	80 95       	com	r24
    3124:	90 95       	com	r25
    3126:	bc 01       	movw	r22, r24
    3128:	cd 01       	movw	r24, r26
    312a:	08 95       	ret

0000312c <__eerd_block_m2560>:
    312c:	dc 01       	movw	r26, r24
    312e:	cb 01       	movw	r24, r22

00003130 <__eerd_blraw_m2560>:
    3130:	fc 01       	movw	r30, r24
    3132:	f9 99       	sbic	0x1f, 1	; 31
    3134:	fe cf       	rjmp	.-4      	; 0x3132 <__eerd_blraw_m2560+0x2>
    3136:	06 c0       	rjmp	.+12     	; 0x3144 <__eerd_blraw_m2560+0x14>
    3138:	f2 bd       	out	0x22, r31	; 34
    313a:	e1 bd       	out	0x21, r30	; 33
    313c:	f8 9a       	sbi	0x1f, 0	; 31
    313e:	31 96       	adiw	r30, 0x01	; 1
    3140:	00 b4       	in	r0, 0x20	; 32
    3142:	0d 92       	st	X+, r0
    3144:	41 50       	subi	r20, 0x01	; 1
    3146:	50 40       	sbci	r21, 0x00	; 0
    3148:	b8 f7       	brcc	.-18     	; 0x3138 <__eerd_blraw_m2560+0x8>
    314a:	08 95       	ret

0000314c <__eerd_word_m2560>:
    314c:	a8 e1       	ldi	r26, 0x18	; 24
    314e:	b0 e0       	ldi	r27, 0x00	; 0
    3150:	42 e0       	ldi	r20, 0x02	; 2
    3152:	50 e0       	ldi	r21, 0x00	; 0
    3154:	ed cf       	rjmp	.-38     	; 0x3130 <__eerd_blraw_m2560>

00003156 <__eeupd_byte_m2560>:
    3156:	26 2f       	mov	r18, r22

00003158 <__eeupd_r18_m2560>:
    3158:	f9 99       	sbic	0x1f, 1	; 31
    315a:	fe cf       	rjmp	.-4      	; 0x3158 <__eeupd_r18_m2560>
    315c:	92 bd       	out	0x22, r25	; 34
    315e:	81 bd       	out	0x21, r24	; 33
    3160:	f8 9a       	sbi	0x1f, 0	; 31
    3162:	01 97       	sbiw	r24, 0x01	; 1
    3164:	00 b4       	in	r0, 0x20	; 32
    3166:	02 16       	cp	r0, r18
    3168:	39 f0       	breq	.+14     	; 0x3178 <__eeupd_r18_m2560+0x20>
    316a:	1f ba       	out	0x1f, r1	; 31
    316c:	20 bd       	out	0x20, r18	; 32
    316e:	0f b6       	in	r0, 0x3f	; 63
    3170:	f8 94       	cli
    3172:	fa 9a       	sbi	0x1f, 2	; 31
    3174:	f9 9a       	sbi	0x1f, 1	; 31
    3176:	0f be       	out	0x3f, r0	; 63
    3178:	08 95       	ret

0000317a <__eeupd_word_m2560>:
    317a:	01 96       	adiw	r24, 0x01	; 1
    317c:	27 2f       	mov	r18, r23
    317e:	ec df       	rcall	.-40     	; 0x3158 <__eeupd_r18_m2560>
    3180:	ea cf       	rjmp	.-44     	; 0x3156 <__eeupd_byte_m2560>

00003182 <__eewr_byte_m2560>:
    3182:	26 2f       	mov	r18, r22

00003184 <__eewr_r18_m2560>:
    3184:	f9 99       	sbic	0x1f, 1	; 31
    3186:	fe cf       	rjmp	.-4      	; 0x3184 <__eewr_r18_m2560>
    3188:	1f ba       	out	0x1f, r1	; 31
    318a:	92 bd       	out	0x22, r25	; 34
    318c:	81 bd       	out	0x21, r24	; 33
    318e:	20 bd       	out	0x20, r18	; 32
    3190:	0f b6       	in	r0, 0x3f	; 63
    3192:	f8 94       	cli
    3194:	fa 9a       	sbi	0x1f, 2	; 31
    3196:	f9 9a       	sbi	0x1f, 1	; 31
    3198:	0f be       	out	0x3f, r0	; 63
    319a:	01 96       	adiw	r24, 0x01	; 1
    319c:	08 95       	ret

0000319e <__eewr_word_m2560>:
    319e:	f1 df       	rcall	.-30     	; 0x3182 <__eewr_byte_m2560>
    31a0:	27 2f       	mov	r18, r23
    31a2:	f0 cf       	rjmp	.-32     	; 0x3184 <__eewr_r18_m2560>

000031a4 <_exit>:
    31a4:	f8 94       	cli

000031a6 <__stop_program>:
    31a6:	ff cf       	rjmp	.-2      	; 0x31a6 <__stop_program>
